     1                                  [map all scpdos.map]
     2                                  [DEFAULT REL]
     3                                  BITS 64
     4                                  %include "driverStruc.inc"
     5                              <1> 
     6                              <1> ;-------------------------------------------------------;
     7                              <1> ; This include file contains miscellaneous SCP/DOS      ;
     8                              <1> ; device driver related structures.                     ;
     9                              <1> ;-------------------------------------------------------;
    10                              <1> 
    11                              <1> struc drvHdr  ;Device Driver Header for character and block devices
    12                              <1> 
    13 00000000 ????????????????    <1>     .nxtPtr resq 1  ;Pointer to the next driver header, -1 if at the end
    14 00000008 ????                <1>     .attrib resw 1  ;Attribute Word
    15 0000000A ????????????????    <1>     .strPtr resq 1  ;Strategy Entry Pointer
    16 00000012 ????????????????    <1>     .intPtr resq 1  ;Interrupt Entry Pointer
    17 0000001A ????????????????    <1>     .drvNam resb 8  ;Driver name (Char) or Number of units byte (Block)
    18                              <1> 
    19                              <1> endstruc
    20                              <1> 
    21                              <1> %macro drvReqHdrM 0 ;Driver Request Header Macro
    22                              <1> 
    23                              <1>     .hdrlen resb 1  ;Length of the request header
    24                              <1>     .unitnm resb 1  ;Unit number, meaningless for character devs
    25                              <1>     .cmdcde resb 1  ;Command code
    26                              <1>     .status resw 1  ;Status word
    27                              <1>     .devptr resq 1  ;Device queue pointer field
    28                              <1> 
    29                              <1> %endmacro
    30                              <1> 
    31                              <1> struc drvReqHdr
    32                              <1>     drvReqHdrM
    22                              <2> 
    23 00000000 ??                  <2>  .hdrlen resb 1
    24 00000001 ??                  <2>  .unitnm resb 1
    25 00000002 ??                  <2>  .cmdcde resb 1
    26 00000003 ????                <2>  .status resw 1
    27 00000005 ????????????????    <2>  .devptr resq 1
    28                              <2> 
    33                              <1> endstruc
    34                              <1> 
    35                              <1> struc initReqPkt  ;Init Request Packet
    36                              <1> 
    37                              <1>     drvReqHdrM   ;Common Driver Header Macro
    22                              <2> 
    23 00000000 ??                  <2>  .hdrlen resb 1
    24 00000001 ??                  <2>  .unitnm resb 1
    25 00000002 ??                  <2>  .cmdcde resb 1
    26 00000003 ????                <2>  .status resw 1
    27 00000005 ????????????????    <2>  .devptr resq 1
    28                              <2> 
    38 0000000D ??                  <1>     .numunt resb 1  ;Number of logical units (Block only, 0 for char)
    39 0000000E ????????????????    <1>     .endptr resq 1  ;Pointer to first free byte after driver
    40 00000016 ????????????????    <1>     .optptr resq 1  ;Pointer to the BPB array (block) or optional args (char)
    41 0000001E ??                  <1>     .drvnum resb 1  ;Drive number
    42                              <1> 
    43                              <1> endstruc
    44                              <1> 
    45                              <1> struc mediaCheckReqPkt ;Media Check Request Packet
    46                              <1> 
    47                              <1>     drvReqHdrM    ;Common Driver Header Macro
    22                              <2> 
    23 00000000 ??                  <2>  .hdrlen resb 1
    24 00000001 ??                  <2>  .unitnm resb 1
    25 00000002 ??                  <2>  .cmdcde resb 1
    26 00000003 ????                <2>  .status resw 1
    27 00000005 ????????????????    <2>  .devptr resq 1
    28                              <2> 
    48 0000000D ??                  <1>     .medesc resb 1  ;DOS media descriptor
    49 0000000E ??                  <1>     .medret resb 1  ;Return byte (Has media been changed?)
    50 0000000F ????????????????    <1>     .desptr resq 1  ;Pointer to a valid volume id field
    51                              <1> 
    52                              <1> endstruc
    53                              <1> 
    54                              <1> struc bpbBuildReqPkt  ;Build BPB Request Packet
    55                              <1> 
    56                              <1>     drvReqHdrM    ;Common Driver Header Macro
    22                              <2> 
    23 00000000 ??                  <2>  .hdrlen resb 1
    24 00000001 ??                  <2>  .unitnm resb 1
    25 00000002 ??                  <2>  .cmdcde resb 1
    26 00000003 ????                <2>  .status resw 1
    27 00000005 ????????????????    <2>  .devptr resq 1
    28                              <2> 
    57 0000000D ??                  <1>     .medesc resb 1  ;DOS media descriptor
    58 0000000E ????????????????    <1>     .bufptr resq 1  ;Transfer buffer
    59 00000016 ????????????????    <1>     .bpbptr resq 1  ;Pointer to the BPB
    60                              <1> 
    61                              <1> endstruc
    62                              <1> 
    63                              <1> struc ioReqPkt   ;IO Request Packet
    64                              <1> 
    65                              <1>     drvReqHdrM    ;Common Driver Header Macro
    22                              <2> 
    23 00000000 ??                  <2>  .hdrlen resb 1
    24 00000001 ??                  <2>  .unitnm resb 1
    25 00000002 ??                  <2>  .cmdcde resb 1
    26 00000003 ????                <2>  .status resw 1
    27 00000005 ????????????????    <2>  .devptr resq 1
    28                              <2> 
    66 0000000D ??                  <1>     .medesc resb 1  ;DOS media descriptor
    67 0000000E ????????????????    <1>     .bufptr resq 1  ;Transfer buffer
    68 00000016 ????????            <1>     .tfrlen resd 1  ;Number of Sectors/bytes to transfer
    69 0000001A ????????????????    <1>     .strtsc resq 1  ;Starting sector for transfer
    70 00000022 ????????????????    <1>     .desptr resq 1  ;Pointer to a valid volume id field if error
    71                              <1> 
    72                              <1> endstruc
    73                              <1> 
    74                              <1> struc nonDestInNoWaitReqPkt    ;Nondestructive Input No Wait Request Packet
    75                              <1>     
    76                              <1>     drvReqHdrM    ;Common Driver Header Macro
    22                              <2> 
    23 00000000 ??                  <2>  .hdrlen resb 1
    24 00000001 ??                  <2>  .unitnm resb 1
    25 00000002 ??                  <2>  .cmdcde resb 1
    26 00000003 ????                <2>  .status resw 1
    27 00000005 ????????????????    <2>  .devptr resq 1
    28                              <2> 
    77 0000000D ??                  <1>     .retbyt resb 1  ;Byte read non destructively
    78                              <1> 
    79                              <1> endstruc
    80                              <1> 
    81                              <1> struc statusReqPkt   ;Status Request Packet
    82                              <1> 
    83                              <1>     drvReqHdrM    ;Common Driver Header Macro
    22                              <2> 
    23 00000000 ??                  <2>  .hdrlen resb 1
    24 00000001 ??                  <2>  .unitnm resb 1
    25 00000002 ??                  <2>  .cmdcde resb 1
    26 00000003 ????                <2>  .status resw 1
    27 00000005 ????????????????    <2>  .devptr resq 1
    28                              <2> 
    84                              <1> 
    85                              <1> endstruc
    86                              <1> 
    87                              <1> struc flushReqPkt ;Flush Request Packet, terminate all pending requests
    88                              <1> 
    89                              <1>     drvReqHdrM    ;Common Driver Header Macro
    22                              <2> 
    23 00000000 ??                  <2>  .hdrlen resb 1
    24 00000001 ??                  <2>  .unitnm resb 1
    25 00000002 ??                  <2>  .cmdcde resb 1
    26 00000003 ????                <2>  .status resw 1
    27 00000005 ????????????????    <2>  .devptr resq 1
    28                              <2> 
    90                              <1>      
    91                              <1> endstruc
    92                              <1> 
    93                              <1> struc openReqPkt ;Open Device Request Packet
    94                              <1> 
    95                              <1>     drvReqHdrM    ;Common Driver Header Macro
    22                              <2> 
    23 00000000 ??                  <2>  .hdrlen resb 1
    24 00000001 ??                  <2>  .unitnm resb 1
    25 00000002 ??                  <2>  .cmdcde resb 1
    26 00000003 ????                <2>  .status resw 1
    27 00000005 ????????????????    <2>  .devptr resq 1
    28                              <2> 
    96                              <1>      
    97                              <1> endstruc
    98                              <1> 
    99                              <1> struc closeReqPkt ;Close Device Request Packet
   100                              <1> 
   101                              <1>     drvReqHdrM    ;Common Driver Header Macro
    22                              <2> 
    23 00000000 ??                  <2>  .hdrlen resb 1
    24 00000001 ??                  <2>  .unitnm resb 1
    25 00000002 ??                  <2>  .cmdcde resb 1
    26 00000003 ????                <2>  .status resw 1
    27 00000005 ????????????????    <2>  .devptr resq 1
    28                              <2> 
   102                              <1>      
   103                              <1> endstruc
   104                              <1> 
   105                              <1> struc remMediaReqPkt ;Removeable Media Request Packet
   106                              <1> 
   107                              <1>     drvReqHdrM    ;Common Driver Header Macro
    22                              <2> 
    23 00000000 ??                  <2>  .hdrlen resb 1
    24 00000001 ??                  <2>  .unitnm resb 1
    25 00000002 ??                  <2>  .cmdcde resb 1
    26 00000003 ????                <2>  .status resw 1
    27 00000005 ????????????????    <2>  .devptr resq 1
    28                              <2> 
   108                              <1>      
   109                              <1> endstruc
   110                              <1> 
   111                              <1> struc ioctlReqPkt    ;Generic IOCTL Request Packet
   112                              <1> 
   113                              <1>     drvReqHdrM    ;Common Driver Header Macro  
    22                              <2> 
    23 00000000 ??                  <2>  .hdrlen resb 1
    24 00000001 ??                  <2>  .unitnm resb 1
    25 00000002 ??                  <2>  .cmdcde resb 1
    26 00000003 ????                <2>  .status resw 1
    27 00000005 ????????????????    <2>  .devptr resq 1
    28                              <2> 
   114 0000000D ??                  <1>     .majfun resb 1  ;Major function number
   115 0000000E ??                  <1>     .minfun resb 1  ;Minor function number
   116 0000000F ????????????????    <1>     .rsival resq 1  ;Contents of RSI
   117 00000017 ????????????????    <1>     .rdival resq 1  ;Contents of RDI
   118 0000001F ????????????????    <1>     .ctlptr resq 1  ;Pointer to Generic IOCTL Request Packet
   119                              <1> 
   120                              <1> endstruc
   121                              <1> 
   122                              <1> struc getDevReqPkt ;Get Logical Device Request Packet
   123                              <1>     
   124                              <1>     drvReqHdrM    ;Common Driver Header Macro
    22                              <2> 
    23 00000000 ??                  <2>  .hdrlen resb 1
    24 00000001 ??                  <2>  .unitnm resb 1
    25 00000002 ??                  <2>  .cmdcde resb 1
    26 00000003 ????                <2>  .status resw 1
    27 00000005 ????????????????    <2>  .devptr resq 1
    28                              <2> 
   125                              <1> 
   126                              <1> endstruc
   127                              <1> 
   128                              <1> struc setDevReqPkt ;Set Logical Device Request Packet
   129                              <1>     
   130                              <1>     drvReqHdrM    ;Common Driver Header Macro
    22                              <2> 
    23 00000000 ??                  <2>  .hdrlen resb 1
    24 00000001 ??                  <2>  .unitnm resb 1
    25 00000002 ??                  <2>  .cmdcde resb 1
    26 00000003 ????                <2>  .status resw 1
    27 00000005 ????????????????    <2>  .devptr resq 1
    28                              <2> 
   131                              <1> 
   132                              <1> endstruc
     5                                  %include "fatStruc.inc"
     6                              <1> 
     7                              <1> ;-------------------------------------------------------;
     8                              <1> ; This include file contains miscellaneous FAT driver   ;
     9                              <1> ; structures. exFAT will have it's own files at a later ;
    10                              <1> ; stage.                                                ;
    11                              <1> ;-------------------------------------------------------;
    12                              <1> 
    13                              <1> struc bpb          ;FAT 12 and 16 BPB, SIZE: 62 bytes
    14                              <1> 
    15 00000000 ??????              <1>     .jmpBoot    resb 3 
    16 00000003 ????????????????    <1>     .oemName    resb 8  ;OEM name
    17 0000000B ????                <1>     .bytsPerSec resw 1  ;Bytes per sector
    18 0000000D ??                  <1>     .secPerClus resb 1  ;Sectors per cluster
    19 0000000E ????                <1>     .revdSecCnt resw 1  ;Number of reserved sectors
    20 00000010 ??                  <1>     .numFATs    resb 1  ;Number of FATs on media
    21 00000011 ????                <1>     .rootEntCnt resw 1  ;Number of entries in Root directory
    22 00000013 ????                <1>     .totSec16   resw 1  ;Number of sectors on medium
    23 00000015 ??                  <1>     .media      resb 1  ;Media descriptor byte
    24 00000016 ????                <1>     .FATsz16    resw 1  ;Number of sectors per FAT
    25 00000018 ????                <1>     .secPerTrk  resw 1  ;Number of sectors per "track"
    26 0000001A ????                <1>     .numHeads   resw 1  ;Number of read "heads"
    27 0000001C ????????            <1>     .hiddSec    resd 1  ;Number of hidden sectors
    28 00000020 ????????            <1>     .totSec32   resd 1  ;32 bit count of sectors
    29                              <1> 
    30 00000024 ??                  <1>     .drvNum     resb 1  ;Logical drive number (00h or 80h)
    31 00000025 ??                  <1>     .reserved1  resb 1  ;Reserved byte
    32 00000026 ??                  <1>     .bootSig    resb 1  ;Extended boot signature (29h)
    33 00000027 ????????            <1>     .volID      resd 1  ;Volume serial number
    34 0000002B <res Bh>            <1>     .volLab     resb 11 ;Volume label string
    35 00000036 ????????????????    <1>     .filSysType resb 8  ;File system type string
    36                              <1> 
    37                              <1> endstruc
    38                              <1> 
    39                              <1> struc bpb32       ;FAT 32 BPB, SIZE: 90 bytes
    40                              <1> 
    41 00000000 ??????              <1>     .jmpBoot    resb 3
    42 00000003 ????????????????    <1>     .oemName    resb 8  ;OEM name
    43 0000000B ????                <1>     .bytsPerSec resw 1  ;Bytes per sector
    44 0000000D ??                  <1>     .secPerClus resb 1  ;Sectors per cluster
    45 0000000E ????                <1>     .revdSecCnt resw 1  ;Number of reserved sectors
    46 00000010 ??                  <1>     .numFATs    resb 1  ;Number of FATs on media
    47 00000011 ????                <1>     .rootEntCnt resw 1  ;Number of entries in Root directory
    48 00000013 ????                <1>     .totSec16   resw 1  ;Number of sectors on medium
    49 00000015 ??                  <1>     .media      resb 1  ;Media descriptor byte
    50 00000016 ????                <1>     .FATsz16    resw 1  ;Number of sectors per FAT, must be 0 for FAT 32
    51 00000018 ????                <1>     .secPerTrk  resw 1  ;Number of sectors per "track"
    52 0000001A ????                <1>     .numHeads   resw 1  ;Number of read "heads"
    53 0000001C ????????            <1>     .hiddSec    resd 1  ;Number of hidden sectors
    54 00000020 ????????            <1>     .totSec32   resd 1  ;32 bit count of sectors
    55                              <1> 
    56 00000024 ????????            <1>     .FATsz32    resd 1  ;32 bit count of sectors occupied by one FAT
    57 00000028 ????                <1>     .extFlags   resw 1  ;Extended Flags word
    58 0000002A ????                <1>     .FSver      resw 1  ;File system version word, must be 0
    59 0000002C ????????            <1>     .RootClus   resd 1  ;First Cluster of Root Directory
    60 00000030 ????                <1>     .FSinfo     resw 1  ;Sector number of FSINFO structure, usually 1
    61 00000032 ????                <1>     .BkBootSec  resw 1  ;Backup Boot sector, either 0 or 6
    62 00000034 <res Ch>            <1>     .reserved   resb 12 ;Reserved 12 bytes
    63                              <1> 
    64 00000040 ??                  <1>     .drvNum     resb 1  ;Logical drive number (00h or 80h)
    65 00000041 ??                  <1>     .reserved1  resb 1  ;Reserved byte
    66 00000042 ??                  <1>     .bootSig    resb 1  ;Extended boot signature (29h)
    67 00000043 ????????            <1>     .volID      resd 1  ;Volume serial number
    68 00000047 <res Bh>            <1>     .volLab     resb 11 ;Volume label string
    69 00000052 ????????????????    <1>     .filSysType resb 8  ;File system type string
    70                              <1> 
    71                              <1> endstruc
    72                              <1> 
    73                              <1> struc fatDirEntry
    74                              <1> 
    75 00000000 <res Bh>            <1>     .name       resb 11 ;8.3 File Name
    76 0000000B ??                  <1>     .attribute  resb 1  ;Usual attributes
    77 0000000C ??                  <1>     .ntRes      resb 1  ;Reserved 0
    78 0000000D ??                  <1>     .crtTimeT   resb 1  ;Count of tenths of a second of file creation time <=199
    79 0000000E ????                <1>     .crtTime    resb 2  ;Creation time, granularity of 2 seconds
    80 00000010 ????                <1>     .crtDate    resb 2  ;Creation date
    81 00000012 ????                <1>     .lastAccDat resb 2  ;Last Read/Write date
    82 00000014 ????                <1>     .fstClusHi  resb 2  ;Hi word of 1st data cluster for file/dir, 0 on FAT12/16
    83 00000016 ????                <1>     .wrtTime    resb 2  ;Last modification (write) time
    84 00000018 ????                <1>     .wrtDate    resb 2  ;Last modification (write) date
    85 0000001A ????                <1>     .fstClusLo  resb 2  ;Lo word of 1st data cluster for file/dir
    86 0000001C ????????            <1>     .fileSize   resb 4  ;32-bit quantity with size of file described by entry
    87                              <1> 
    88                              <1> endstruc
    89                              <1> ;Directory attribute equates
    90                              <1>     dirReadOnly     equ 01h
    91                              <1>     dirHidden       equ 02h
    92                              <1>     dirSystem       equ 04h
    93                              <1>     dirVolumeID     equ 08h
    94                              <1>     dirDirectory    equ 10h
    95                              <1>     dirArchive      equ 20h
    96                              <1>     dirLongName     equ dirReadOnly | dirHidden | dirSystem | dirVolumeID
    97                              <1> 
    98                              <1> struc bpbEx   ;exFAT BPB, SIZE: 120 bytes
    99                              <1> 
   100 00000000 ??????              <1>     .jmpBoot                resb 3 
   101 00000003 ????????????????    <1>     .oemName                resb 8  ;OEM name
   102 0000000B <res 35h>           <1>     .MustBeZero             resb 53 ;Must be 0, 53 bytes
   103 00000040 ????????????????    <1>     .partitionOffset        resq 1  ;in sectors, 0 means ignore this field
   104 00000048 ????????????????    <1>     .volumeLength           resq 1  ;Volume Length in sectors
   105 00000050 ????????            <1>     .FAToffset              resd 1  ;Volume rel offset of first FAT, in sectors
   106 00000054 ????????            <1>     .FATlength              resd 1  ;FAT length, in sectors
   107 00000058 ????????            <1>     .clusterHeapOffset      resd 1  ;Start of data area, in sectors
   108 0000005C ????????            <1>     .clusterCount           resd 1  ;Number of clusters on medium
   109 00000060 ????????            <1>     .firstClusterOfRootDir  resd 1  ;First Cluster of Root Directory, min 2
   110 00000064 ????????            <1>     .volumeSerialNum        resd 1  ;Volume Serial Number
   111 00000068 ????                <1>     .FSrevision             resw 1  ;Should be 0001 (v1.00)
   112 0000006A ????                <1>     .volumeFlags            resw 1  ;Volume Flags, refer to documentation
   113 0000006C ??                  <1>     .bytesPerSectorShift    resb 1  ;min 9 (512 bps), max 12 (4096 bps)
   114 0000006D ??                  <1>     .sectorsPerClusterShift resb 1  ;Result of log_2(N) for N=sec per clus
   115 0000006E ??                  <1>     .numberOfFATs           resb 1  ;Number of FATs, only 1 or 2
   116 0000006F ??                  <1>     .driveSelect            resb 1  ;Drive Select, 0 or 80h (Int 13h)
   117 00000070 ??                  <1>     .percentInUse           resb 1  ;Rounded down. FFh means unknown
   118 00000071 ??????????????      <1>     .reserved               resb 7  ;Reserved for alignment
   119                              <1> 
   120                              <1> endstruc
   121                              <1> 
   122                              <1> struc FSInfo
   123                              <1> 
   124 00000000 ????????            <1>     .leadSig    resb 4  ;Leading Signature, should be 041615252h
   125 00000004 <res 1E0h>          <1>     .reserved1  resb 480
   126 000001E4 ????????            <1>     .strucSig   resb 4  ;Should be 061417272h
   127 000001E8 ????????            <1>     .freeCount  resb 4  ;Contains the last known free cluster on volume
   128 000001EC ????????            <1>     .nextFree   resb 4  ;Contains the first known free cluster on volume
   129 000001F0 <res Ch>            <1>     .reserved2  resb 12 ;Should be 0
   130 000001FC ????????            <1>     .trailSig   resb 4  ;Should be 0AA550000h
   131                              <1> 
   132                              <1> endstruc
     6                                  %include "dosStruc.inc"
     7                              <1> 
     8                              <1> ;-------------------------------------------------------;
     9                              <1> ; This include file contains miscellaneous internal     ;
    10                              <1> ; SCP/DOS structures.                                   ;
    11                              <1> ;-------------------------------------------------------;
    12                              <1> 
    13                              <1> ;------------------------------------------------------------------------;
    14                              <1> ; Each mass storage device up to LASTDRIVE gets a DPB, describing 
    15                              <1> ; its file system structure. This is used to locate files and structures
    16                              <1> ; on the device itself and to translate file requests to cluster chains
    17                              <1> ; to LBAs to pass to the disk driver..
    18                              <1> ; The DPBs form a linked list, with each DPB formed after the devices 
    19                              <1> ; drivers Initialise routine has been called.
    20                              <1> ;------------------------------------------------------------------------;
    21                              <1> struc dpb        ;Drive Parameter Block
    22                              <1> 
    23 00000000 ??                  <1>     .bDriveNumber            resb 1  ;Drive number (0=A, 1=B ...)
    24 00000001 ??                  <1>     .bUnitNumber             resb 1  ;Unit number in device
    25 00000002 ??                  <1>     .bBytesPerSectorShift    resb 1  ;min 9 (512 bps), max 12 (4096 bps)
    26 00000003 ??                  <1>     .bMaxSectorInCluster     resb 1  ;(Maximum sector in cluster) - 1
    27                              <1> ;                                       i.e. (2^bSectorsPerClusterShift) - 1
    28 00000004 ??                  <1>     .bSectorsPerClusterShift resb 1  ;Sectors per cluster exponent
    29 00000005 ????????            <1>     .dFAToffset              resd 1  ;Vol rel offset of first FAT, in sectors
    30 00000009 ??                  <1>     .bNumberOfFATs           resb 1  ;Number of FATs
    31 0000000A ????                <1>     .wNumberRootDirEntries   resw 1  ;In sectors
    32 0000000C ????????            <1>     .dClusterHeapOffset      resd 1  ;Start of data area, in sectors
    33 00000010 ????????            <1>     .dClusterCount           resd 1  ;Total number of clusters (volume size)
    34 00000014 ????????            <1>     .dFATlength              resd 1  ;FAT length, in sectors
    35 00000018 ????????            <1>     .dFirstClusterOfRootDir  resd 1  ;First Cluster of Root Directory, min 2
    36 0000001C ????????????????    <1>     .qDriverHeaderPtr        resq 1  ;Pointer to device driver header
    37 00000024 ??                  <1>     .bMediaDescriptor        resb 1  ;Media descriptor
    38 00000025 ??                  <1>     .bAccessFlag             resb 1  ;Access Flag (0 if accessed, else -1)
    39 00000026 ????????????????    <1>     .qNextDPBPtr             resq 1  ;Pointer to next DPB, -1 if at end
    40 0000002E ????????            <1>     .dFirstFreeCluster       resd 1  ;Starting cluster of free space search
    41 00000032 ????????            <1>     .dNumberOfFreeClusters   resd 1  ;Number of free clusters, -1 unknown
    42                              <1> 
    43                              <1> endstruc
    44                              <1> 
    45                              <1> ;------------------------------------------------------------------------;
    46                              <1> ; Each mass storage device up to LASTDRIVE has a CDS associated with it.
    47                              <1> ; All disk pathing requests go via the CDS for that drive.
    48                              <1> ; The default drive is the last accessed drive, this number is stored
    49                              <1> ; in the DOS data area.
    50                              <1> ; The CDS is stored as an array with the offset into the array being 
    51                              <1> ; given by the drive letter's offset into the alphabet (with A=0).
    52                              <1> ;
    53                              <1> ; DEFAULT LASTDRIVE=E, MINIMUM LASTDRIVE=B
    54                              <1> ;------------------------------------------------------------------------;
    55                              <1> struc cds       ;Current Directory structure
    56 00000000 <res 43h>           <1>     .sCurrentPath        resb 67    ;Current Directory Path String
    57 00000043 ????                <1>     .wFlags              resw 1 ;CDS Flags - 
    58 00000045 ????????????????    <1>     .qDPBPtr             resq 1 ;Ptr to the DPB of the dev using this CDS
    59 0000004D ????????            <1>     .dStartCluster       resd 1 ;Starting cluster of the directory on disk
    60 00000051 ????????????????    <1>     .qReserved           resq 1 ;Reserved for future expansions
    61 00000059 ????                <1>     .wBackslashOffset    resw 1 ;How many chars to start of current dir in the 
    62                              <1> ; currentPath (usually 2 to skip C: in C:\, but when SUBSTing a drive letter to 
    63                              <1> ; another, we save the number of chars to skip to that deep level).
    64                              <1> ; I.E. if we SUBST A:\DOS G: then this value for the CDS for drive G is 6
    65                              <1> ; Flags: Bit 15 set = Network drive
    66                              <1> ;        Bit 14 set = Physical drive
    67                              <1> ;        Bit 13 set = JOIN'ed drive
    68                              <1> ;        Bit 12 set = SUBST'ed drive
    69                              <1> ;        Bit 7  set = Redirected, not network, drive (This is how MSCDEX worked)
    70                              <1> endstruc
    71                              <1> ;CDS equates
    72                              <1>     cdsNetDrive     equ 8000h
    73                              <1>     cdsPhysDrive    equ 4000h
    74                              <1>     cdsJoinDrive    equ 2000h
    75                              <1>     cdsSubstDrive   equ 1000h
    76                              <1>     cdsRedirDrive   equ 0080h
    77                              <1> ;------------------------------------------------------------------------;
    78                              <1> ; The SFT is a way to allow applications to open file handles to files 
    79                              <1> ; and devices. As things stand, the SFT chain will have 5 file handles
    80                              <1> ; under the first header, and then a second header will be linked to the 
    81                              <1> ; first one after CONFIG.SYS has been read, to allow for FILES= to specify
    82                              <1> ; a size for the second SFT (default 10 files). Same for System FCBs, 
    83                              <1> ; using the FCBS= command. Default FCBS=5.
    84                              <1> ;
    85                              <1> ; A file handle describes the file, and the location within the file that
    86                              <1> ; we are reading. The file handle can be manipulated without the file
    87                              <1> ; being in memory, thus allowing the user to access data without needing 
    88                              <1> ; to take up large portions of memory. Similarly, file handles allow for
    89                              <1> ; accessing devices, by treating them as files with their drivers 
    90                              <1> ; responding and translating the manipulations of the file handle itself.
    91                              <1> ; Neither the driver nor the application should see or use the SFT for
    92                              <1> ; the handle, as it is subject to change (and will change when file 
    93                              <1> ; sharing provisions are included). The DOS will make requests to the 
    94                              <1> ; driver in a generic way and the driver will respond, with DOS keeping
    95                              <1> ; track of the information in the SFT entry for that handle. 
    96                              <1> ;
    97                              <1> ; One SFT entry can have multiple handles and multiple SFT entries
    98                              <1> ; can point to the same file. It all depends on what the applications 
    99                              <1> ; want to do with the File.
   100                              <1> ;
   101                              <1> ; !!!!IMPORTANT!!!!
   102                              <1> ; Currently there are plans for File Sharing, but I include minimal 
   103                              <1> ; provisions for it. I really just wanna get a DOS out the door.
   104                              <1> ;
   105                              <1> ;Each SFT may look like this:
   106                              <1> ;sysvars-->sfth------------>sfth------------>|ENDOFLIST|
   107                              <1> ;            |                |
   108                              <1> ;       wNumFiles*sft    wNumFiles*sft
   109                              <1> ;
   110                              <1> ; Two SFT chains are built; one for files, and a one for so called 
   111                              <1> ; System FCBs.
   112                              <1> ;
   113                              <1> ; Each SFT header has an array of SFT's below it, with the number of 
   114                              <1> ; SFTs given by wNumFiles. The SFT headers form a linked list.
   115                              <1> ;
   116                              <1> ; DEFAULT FILES=15, MINIMUM FILES=5
   117                              <1> ; DEFAULT FCBS=5, MINIMUM FCBS=5
   118                              <1> ;------------------------------------------------------------------------;
   119                              <1> struc sfth   ;System file table header
   120                              <1> ; This is the SFT header.
   121                              <1> ; This structure comes before the start of the first file in the array/table.
   122 00000000 ????????????????    <1>     .qNextSFTPtr resq 1    ;Pointer to the next SFT
   123 00000008 ????                <1>     .wNumFiles   resw 1    ;Number of files in this table
   124                              <1> endstruc
   125                              <1> 
   126                              <1> struc sft
   127                              <1> ;This is the file struc itself
   128 00000000 ????                <1>     .wNumHandles resw 1    ;Number of handles pointing to this file
   129 00000002 ????                <1>     .wOpenMode   resw 1    ;Bit 15 set if opened via FCB
   130 00000004 ??                  <1>     .bFileAttrib resb 1    ;Regular File Attributes
   131 00000005 ????                <1>     .wDeviceInfo resw 1    ;Includes Device number
   132 00000007 ????????????????    <1>     .qPtr        resq 1    ;IF char, ptr to device driver, ELSE DPBptr
   133 0000000F ????????            <1>     .dStartClust resd 1    ;Start cluster of file
   134 00000013 ????                <1>     .wTime       resw 1    ;File Time
   135 00000015 ????                <1>     .wDate       resw 1    ;File Date
   136 00000017 ????????            <1>     .dFileSize   resd 1    ;File Size, in bytes
   137 0000001B ????????            <1>     .dCurntOff   resd 1    ;Current Offset in file, in bytes
   138 0000001F ????                <1>     .wRelClust   resw 1    ;Relative cluster in file of the last cluster accessed
   139 00000021 ????????            <1>     .dDirSect    resd 1    ;Relative number of sector containing directory entry 
   140 00000025 ??                  <1>     .bNumDirEnt  resb 1    ;Number of dir entry within sector (byte offset/32)
   141 00000026 <res Bh>            <1>     .sFCBName    resb 11   ;8.3 Filename
   142 00000031 ????????????????    <1>     .qPSPOwner   resq 1    ;Address of PSP of program which first opened this file
   143 00000039 ????????            <1>     .dAbsClusr   resd 1    ;Absolute cluster of last cluster accessed
   144                              <1> endstruc
   145                              <1> 
   146                              <1> ;------------------------------------------------------------------------;
   147                              <1> ; Buffers allow for buffered drive IO, by first transferring a sector 
   148                              <1> ; to an internal buffer, and then copying it to the specified location
   149                              <1> ; in memory. The buffer is kept in the buffer chain,  in the event that 
   150                              <1> ; another request for the same sector from the same device is made, so 
   151                              <1> ; that is can be read from the device directly. Buffers are uniform in 
   152                              <1> ; size, selected according to the largest detected sector size during 
   153                              <1> ; the initial loadup.
   154                              <1> ;
   155                              <1> ; The buffer pointer in SysVars points to most recently used Buffer
   156                              <1> ;
   157                              <1> ; DEFAULT BUFFERS=30, MINIMUM BUFFERS=2
   158                              <1> ;------------------------------------------------------------------------;
   159                              <1> 
   160                              <1> struc bufferHdr
   161 00000000 ????????????????    <1>     .nextBufPtr  resq  1   ;Pointer to the next buffer in the chain or -1 at end
   162 00000008 ??                  <1>     .driveNumber resb  1   ;Drive number the buffer is used for
   163 00000009 ??                  <1>     .bufferFlags resb  1   ;Standard Flags
   164 0000000A ????????            <1>     .bufferLBA   resd  1   ;LBA the buffer contains
   165 0000000E ??                  <1>     .bufFATcopy  resb  1   ;Number of copies of the FAT to write (1 if non-FAT)
   166 0000000F ??                  <1>     .bufFAToff   resb  1   ;Sector offset of the backup copy of the FAT on disk
   167 00000010 ????????????????    <1>     .driveDPBPtr resq  1   ;Pointer to the device DPB block
   168                              <1> endstruc
   169                              <1> 
   170                              <1> ;------------------------------------------------------------------------;
   171                              <1> ; For Int 41h, the callers registers are saved on their stack in the 
   172                              <1> ; following order, thus allowing for return values to be placed in the 
   173                              <1> ; registers by accessing the caller register stack frame.
   174                              <1> ;------------------------------------------------------------------------;
   175                              <1> struc callerFrame
   176 00000000 ????????????????    <1>     .rax    resq 1  ;Bottom of frame, pointer to rax saved in oldRSP
   177 00000008 ????????????????    <1>     .rbx    resq 1    
   178 00000010 ????????????????    <1>     .rcx    resq 1
   179 00000018 ????????????????    <1>     .rdx    resq 1
   180 00000020 ????????????????    <1>     .rsi    resq 1
   181 00000028 ????????????????    <1>     .rdi    resq 1
   182 00000030 ????????????????    <1>     .rbp    resq 1
   183 00000038 ????????????????    <1>     .r8     resq 1  ;To be removed if truly not needed
   184 00000040 ????????????????    <1>     .r9     resq 1
   185                              <1> ;Pushed by Processor when invoked via Interrupt
   186 00000048 ????????????????    <1>     .rip    resq 1
   187 00000050 ????????????????    <1>     .cs     resq 1
   188 00000058 ????????????????    <1>     .flags  resq 1
   189                              <1> endstruc
   190                              <1> 
   191                              <1> %macro pushDOS 0
   192                              <1>     push r9
   193                              <1>     push r8
   194                              <1>     push rbp
   195                              <1>     push rdi
   196                              <1>     push rsi
   197                              <1>     push rdx
   198                              <1>     push rcx
   199                              <1>     push rbx
   200                              <1>     push rax
   201                              <1> %endmacro
   202                              <1> 
   203                              <1> %macro popDOS 0
   204                              <1>     pop rax
   205                              <1>     pop rbx
   206                              <1>     pop rcx
   207                              <1>     pop rdx
   208                              <1>     pop rsi
   209                              <1>     pop rdi
   210                              <1>     pop rbp
   211                              <1>     pop r8
   212                              <1>     pop r9
   213                              <1> %endmacro
   214                              <1> 
   215                              <1> struc psp
   216 00000000 ????                <1>     .return     resb 2  ;Should always be CDh 40h
   217 00000002 ????????????????    <1>     .startSeg   resq 1  ;Pointer to the start of the PSP
   218 0000000A ????????????????    <1>     .oldInt42h  resq 1  ;Int 42h pointer on overlay load
   219 00000012 ????????????????    <1>     .oldInt43h  resq 1  ;Int 43h pointer on overlay load
   220 0000001A ????????????????    <1>     .oldInt44h  resq 1  ;Int 44h pointer on overlay load
   221 00000022 ????????????????    <1>     .parentPtr  resq 1  ;Pointer to parent process PSP
   222 0000002A <res 14h>           <1>     .fHandles   resb 20 ;Main File handle array
   223 0000003E ????????????????    <1>     .envPtr     resq 1  ;Pointer to the environment
   224 00000046 ????????????????    <1>     .rspPtr     resq 1  ;Pointer to rsp on entry to Int 41h
   225 0000004E ????                <1>     .xtraHdlSz  resw 1  ;Additional File Handle array size
   226 00000050 ??????              <1>     .unixEntry  resb 3  ;Must always be CDh 41h CBh
   227 00000053 ????????????????    <1>     .prevPSP    resq 1  ;Pointer to the previous PSP in chain
   228 0000005B ????????????????    <1>     .xtraHdlPtr resq 1  ;Pointer to the extra handle array if needed
   229 00000063 ????????????????    <1>     .fcbPtr1    resq 1  ;Pointer to the first OS allocated FCB
   230 0000006B <res 15h>           <1>     .reserved   resb 21
   231 00000080 ??                  <1>     .charCount  resb 1  ;Number of characters in command tail
   232 00000081 <res 7Fh>           <1>     .progTail   resb 127 ;Default DTA/Program tail
   233                              <1> endstruc
   234                              <1> 
   235                              <1> struc mcb
   236 00000000 ??                  <1>     .mzbyte     resb 1  ;M=In use, Z=Free
   237 00000001 ????????????????    <1>     .processPtr resq 1  ;Points to the start of the process PSP
   238 00000009 ????????            <1>     .paragraphs resd 1  ;Gives the number of paras allocated to this process
   239 0000000D ??????              <1>     .reserved   resb 3
   240                              <1>     .program:
   241                              <1> endstruc
     7                                  %include "dosSeg.asm"
     8                              <1> ;This file contains the main DOS data segment
     9                              <1> 
    10                              <1> Segment dSeg nobits align=1 
    11 00000000 ????????????????    <1>     dosSegPtr   resq 1    ;Pointer to the data Segment itself
    12 00000008 ??                  <1>     bootDrive   resb 1    ;The Int 33h device we booted from
    13 00000009 <res 2Ah>           <1>     charReqHdr  resb ioReqPkt_size  ;Character IO Request header
    14 00000033 <res 2Ah>           <1>     diskReqHdr  resb ioReqPkt_size  ;Disk Action Request header
    15                              <1>     ;The device driver header with space for the largest possible packet
    16 0000005D ????????????????    <1>     sysVarsPtr  resq 1    ;Pointer to dpbHeadPtr, head of Sys Vars struc below
    17 00000065 ????????????????    <1>     mcbChainPtr resq 1    ;Pointer to the MCB chain
    18 0000006D ????????????????    <1>     dpbHeadPtr  resq 1    ;Pointer to the first DPB in the DPB chain
    19 00000075 ????????????????    <1>     sftHeadPtr  resq 1    ;Pointer to the first SFT header in SFT chain
    20 0000007D ????????????????    <1>     clockPtr    resq 1    ;Pointer to the current active CLOCK$ device header
    21                              <1>     ;                    The last driver loaded with the CLOCK$ bit[3] set 
    22 00000085 ????????????????    <1>     conPtr      resq 1    ;Pointer to the current active CON device header 
    23                              <1>     ;                    The last driver loaded with the STDIN bit[0] set
    24 0000008D ????                <1>     maxBytesSec resw 1    ;Maximum number of bytes per sector (size of buffers)
    25 0000008F ????????????????    <1>     bufHeadPtr  resq 1    ;Pointer to the head of the disk buffer chain
    26 00000097 ????????????????    <1>     cdsHeadPtr  resq 1    ;Pointer to the head of the CDS array
    27 0000009F ????????????????    <1>     sfcbHeadPTr resq 1    ;Pointer to the head of the System FCB chain
    28 000000A7 ????                <1>     numSafeSFCB resw 1    ;Number of protected FCBs (y in FCBS=x,y)
    29 000000A9 ??                  <1>     numMSDdrv   resb 1    ;Number of mass storage devices detected in system
    30 000000AA ??                  <1>     lastdrvNum  resb 1    ;Value of LASTDRIVE (default = 5) [Size of CDS array]
    31 000000AB ??                  <1>     numJoinDrv  resb 1    ;Number of Joined Drives
    32 000000AC <res 22h>           <1>     nulDevHdr   resb drvHdr_size
    33                              <1> 
    34                              <1> ;Start of Swappable Data Area, this bit can remain static
    35 000000CE ??                  <1>     critErrFlag resb 1  ;Critical error flag, set on entry to INT 44h
    36 000000CF ??                  <1>     inDOS       resb 1  ;Inc on each DOS call, dec when leaving
    37 000000D0 ??                  <1>     errorDrv    resb 1  ;Drive on which error occured or FFh
    38 000000D1 ??                  <1>     errorLocus  resb 1  ;Where the error took place  
    39 000000D2 ????                <1>     errorExt    resw 1  ;Extended Error Code
    40 000000D4 ??                  <1>     errorAction resb 1  ;Suggested action for error  
    41 000000D5 ??                  <1>     errorClass  resb 1  ;Error Class
    42                              <1> 
    43 000000D6 ????????????????    <1>     currentDTA  resq 1  ;Address of the current DTA
    44 000000DE ????????????????    <1>     currentPSP  resq 1  ;Address of current PSP
    45 000000E6 ????????????????    <1>     rdiErrorPtr resq 1  ;Saves RDI value of last error
    46 000000EE ????????????????    <1>     xInt43hRSP  resq 1  ;Saves RSP across an Int 43h call
    47 000000F6 ????                <1>     lastRetCode resw 1  ;Last return code returned by Int 41h/4Ch
    48 000000F8 ??                  <1>     currentDrv  resb 1  ;Default, last accessed drive
    49 000000F9 ??                  <1>     breakFlag   resb 1  ;If set, check for CTRL+C on all DOS calls
    50                              <1> ;SDA, needs to be replaced between processes
    51 000000FA ????????????????    <1>     xInt44hRSP  resq 1  ;RSP across an Int 44h call
    52                              <1> 
    53 00000102 ??                  <1>     Int44RetVal resb 1  ;Saves a copy of the Int 44 return value
    54 00000103 ??                  <1>     Int44bitfld resb 1  ;Copies the bit field given to the Int 44h handler
    55 00000104 ??                  <1>     int48Flag   resb 1  ;If set, Int 48h should be called, if clear no
    56 00000105 ????????????????    <1>     oldoldRSP   resq 1  ;RSP at prev Int 41h entry if called from within Int 41h
    57 0000010D ????????????????    <1>     oldRSP      resq 1  ;RSP when entering Int 41h
    58 00000115 ????????????????    <1>     oldRBX      resq 1  ;Temp var to save value of rbx during an Int 41 call
    59                              <1> ;Time stuff
    60 0000011D ????????????        <1>     CLOCKrecrd  resb 6  ;Clock driver record
    61 00000123 ??                  <1>     dayOfMonth  resb 1  ;1 - 31 BCD
    62 00000124 ??                  <1>     monthOfYear resb 1  ;1 - 12 BCD
    63 00000125 ????                <1>     years       resw 1  ;0000 - 9999 BCD
    64 00000127 ????                <1>     yearsOffset resw 1  ;Current Year - 1980
    65 00000129 ????????            <1>     daysOffset  resd 1  ;Days since 1-1-1980
    66 0000012D ??                  <1>     dayOfWeek   resb 1  ;0 = Sunday <-> 6 = Saturday
    67                              <1> 
    68                              <1> ;Stacks
    69 0000012E <res 528h>          <1>     critStack   resq 165
    70 00000656 ????????????????    <1>     critStakTop resq 1
    71 0000065E <res 638h>          <1>     IOStack     resq 199
    72 00000C96 ????????????????    <1>     IOStakTop   resq 1
    73 00000C9E <res 638h>          <1>     DiskStack   resq 199
    74 000012D6 ????????????????    <1>     DiskStakTop resq 1
    75                              <1>     dSegLen     equ     $
     8                                  
     9                                  Segment .text align=1
    10                                  ; We arrive here with the following values in the registers.
    11                                  ; rbx =  LBA of first Logical Block after SCP/BIOS
    12                                  ; dx  = Int 33h boot device number
    13                                  ; fs  = userbase pointer (pointer to first usable block of RAM)
    14                                  tempPSP:    ;Here to allow the loader to use Int 41h once it is loaded high
    15 00000000 55AA                        dw 0AA55h           ;Initial signature
    16 00000002 909090909090909090-         db (100h-2) dup (90h)   ;Duplicate NOPs for the PSP
    16 0000000B 909090909090909090-
    16 00000014 909090909090909090-
    16 0000001D 909090909090909090-
    16 00000026 909090909090909090-
    16 0000002F 909090909090909090-
    16 00000038 909090909090909090-
    16 00000041 909090909090909090-
    16 0000004A 909090909090909090-
    16 00000053 909090909090909090-
    16 0000005C 909090909090909090-
    16 00000065 909090909090909090-
    16 0000006E 909090909090909090-
    16 00000077 909090909090909090-
    16 00000080 909090909090909090-
    16 00000089 909090909090909090-
    16 00000092 909090909090909090-
    16 0000009B 909090909090909090-
    16 000000A4 909090909090909090-
    16 000000AD 909090909090909090-
    16 000000B6 909090909090909090-
    16 000000BF 909090909090909090-
    16 000000C8 909090909090909090-
    16 000000D1 909090909090909090-
    16 000000DA 909090909090909090-
    16 000000E3 909090909090909090-
    16 000000EC 909090909090909090-
    16 000000F5 909090909090909090-
    16 000000FE 9090               
    17 00000100 64881425[08000000]          mov byte fs:[bootDrive], dl ;Save the boot drive in memory
    18 00000108 488D15F1FEFFFF              lea rdx, qword [tempPSP]    ;Get the address of the tempPSP
    19 0000010F 6448891425-                 mov qword fs:[currentPSP], rdx
    19 00000114 [DE000000]         
    20                                  ;DOS allows for non-PARA aligned PSPs but DOS aligns all programs on PARA bndry
    21 00000118 B9000100C0                  mov ecx, 0C0000100h ;Read FS MSR
    22 0000011D 0F32                        rdmsr
    23 0000011F 89D7                        mov edi, edx        ;Get the hi dword, and clear the upper bytes
    24 00000121 48C1E720                    shl rdi, 20h        ;Shift high
    25 00000125 89C7                        mov edi, eax        ;Get the low dword in
    26                                  
    27 00000127 6448893C25-                 mov qword fs:[dosSegPtr], rdi 
    27 0000012C [00000000]         
    28 00000130 4889FD                      mov rbp, rdi    ;Save the start of dosSeg in rdx 
    29 00000133 4881C7[DE120000]            add rdi, dSegLen ;Move destination past end of data area
    30 0000013A 488D35(00000000)            lea rsi, section.resSeg.start  ;Get RIP relative address to copy high
    31 00000141 B900100000                  mov ecx, 1000h
    32 00000146 F348A5                      rep movsq
    33                                  
    34                                  ;Modify the pointers in nData before putting them in the data area
    35 00000149 48012D72010000              add qword [nData + drvHdr.nxtPtr], rbp
    36 00000150 48012D75010000              add qword [nData + drvHdr.strPtr], rbp
    37 00000157 48012D76010000              add qword [nData + drvHdr.intPtr], rbp
    38                                  ;Copy the Null driver to its location in Sysvars
    39 0000015E B922000000                  mov ecx, drvHdr_size
    40 00000163 488D3558010000              lea rsi, qword [nData]
    41 0000016A 488DBD[AC000000]            lea rdi, qword [rbp + nulDevHdr]
    42 00000171 F3A4                        rep movsb   
    43                                  
    44                                  ;Adjust the addresses in the other driver headers 
    45 00000173 48BE-                       mov rsi, conHdr ;Point to the first non-NUL dev in chain
    45 00000175 [C407000000000000] 
    46 0000017D B90C000000                  mov ecx, 12      ;12 drivers in data area
    47 00000182 488D342E                    lea rsi, qword [rsi + rbp]  ;Get effective addr of driver header
    48                                  adjDrivers:
    49 00000186 E8BC000000                  call adjustDrvHdr
    50 0000018B E2F9                        loop adjDrivers
    51                                  
    52                                      ;Open NUL
    53 0000018D 488D9D[B6000000]            lea rbx, qword [rbp + nulDevHdr + drvHdr.strPtr]    ;Get ptr to strat ptr
    54 00000194 488B1B                      mov rbx, qword [rbx]    ;Get strat ptr
    55 00000197 30C0                        xor al, al
    56 00000199 FFD3                        call rbx
    57                                  
    58                                      ;Open CON
    59 0000019B 48BB-                       mov rbx, conDriver
    59 0000019D [7309000000000000] 
    60 000001A5 488D5C1D00                  lea rbx, qword [rbp+rbx]
    61 000001AA 30C0                        xor al, al
    62 000001AC FFD3                        call rbx
    63                                  
    64                                      ;Open Mass Storage
    65 000001AE 48BB-                       mov rbx, msdDriver
    65 000001B0 [D90A000000000000] 
    66 000001B8 488D5C1D00                  lea rbx, qword [rbp+rbx]
    67 000001BD 30C0                        xor al, al
    68 000001BF FFD3                        call rbx
    69                                  ;Adjust Int 41h address table
    70                                  
    71                                  adjInt41h:
    72 000001C1 B96A000000                  mov ecx, dispatchTableL/8 ;Number of elements in table
    73 000001C6 48BB-                       mov rbx, functionDispatch.dispatchTable ;Get EA of table
    73 000001C8 [A901000000000000] 
    74 000001D0 488D5C1D00                  lea rbx, qword [rbp+rbx]    ;Point to the start of the relocated table 
    75                                  .ai41h:
    76 000001D5 48012B                      add qword [rbx], rbp    ;Add base address value to entry in reloc table
    77 000001D8 4881C308000000              add rbx, 8              ;Each entry is size 8
    78 000001DF FFC9                        dec ecx
    79 000001E1 75F2                        jnz .ai41h  ;Keep looping until all entries have been adjusted
    80                                  
    81                                  ;Adjust Interrupt Entries Int 40h-49h
    82                                  adjInts:
    83 000001E3 B340                        mov bl, 40h
    84 000001E5 B807F00000                  mov eax, 0F007h ;Get the descriptor
    85 000001EA CD35                        int 35h
    86 000001EC B940000000                  mov ecx, 40h    ;Start from interrupt 40h
    87 000001F1 488D3D7A000000              lea rdi, intData
    88 000001F8 89C6                        mov esi, eax    ;Move segment selector info to esi
    89                                  .ai0:
    90 000001FA B808F00000                  mov eax, 0F008h ;Set the descriptor
    91 000001FF 488B1F                      mov rbx, qword [rdi]    ;Get address pointed to by rdi
    92 00000202 4801EB                      add rbx, rbp            ;Add the relocated base to rbx
    93 00000205 CD35                        int 35h
    94 00000207 4881C708000000              add rdi, 8
    95 0000020E FFC1                        inc ecx
    96 00000210 81F94A000000                cmp ecx, 4Ah
    97 00000216 75E2                        jne .ai0
    98                                  
    99                                  ;Test Error Case
   100 00000218 B430                        mov ah, 00110000b
   101 0000021A B000                        mov al, 00h
   102 0000021C BF0C000000                  mov edi, 0Ch
   103 00000221 CD44                        int 44h
   104                                  
   105                                  
   106 00000223 488D1530000000              lea rdx, qword [startmsg]   ;Get the absolute address of message
   107 0000022A B409                        mov ah, 09h
   108 0000022C CD41                        int 41h
   109                                  
   110 0000022E 64488B3425-                 mov rsi, fs:[nulDevHdr]
   110 00000233 [AC000000]         
   111 00000237 B801C50000                  mov eax, 0C501h ;Connect debugger
   112 0000023C CD35                        int 35h
   113 0000023E 6687DB                      xchg bx, bx
   114                                  l1:
   115 00000241 B401                        mov ah, 01h  ;Write with echo
   116 00000243 CD41                        int 41h
   117 00000245 EBFA                        jmp short l1
   118                                  adjustDrvHdr:
   119                                  ;Input: rsi = Effective address of driver in DOS segment
   120                                  ;       rbp = Ptr to the start of the DOS segment
   121                                  ;Output: rsi = EA of next header in DOS segment
   122 00000247 48012E                      add qword [rsi + drvHdr.nxtPtr], rbp    ;Adjust address
   123 0000024A 48016E0A                    add qword [rsi + drvHdr.strPtr], rbp
   124 0000024E 48016E12                    add qword [rsi + drvHdr.intPtr], rbp
   125 00000252 4881C622000000              add rsi, drvHdr_size
   126 00000259 C3                          ret
   127                                  
   128 0000025A 0A0D5374617274696E-     startmsg db 0Ah,0Dh,"Starting SCP/DOS...",0Ah,0Dh,"$"
   128 00000263 67205343502F444F53-
   128 0000026C 2E2E2E0A0D24       
   129                                  intData:
   130 00000272 [5900000000000000]          dq terminateProcess ;Int 40h
   131 0000027A [5900000000000000]          dq functionDispatch ;Int 41h
   132 00000282 [F904000000000000]          dq terminateHandler ;Int 42h
   133 0000028A [F904000000000000]          dq ctrlCHandler     ;Int 43h
   134 00000292 [F904000000000000]          dq critErrorHandler ;Int 44h
   135 0000029A [8C07000000000000]          dq absDiskRead      ;Int 45h
   136 000002A2 [A107000000000000]          dq absDiskWrite     ;Int 46h
   137 000002AA [B607000000000000]          dq terminateResident    ;Int 47h
   138 000002B2 [B607000000000000]          dq inDosHandler     ;Int 48h
   139 000002BA [B807000000000000]          dq fastOutput       ;Int 49h
   140                                  nData:
   141 000002C2 [C407000000000000]          dq conHdr
   142 000002CA 0480                        dw 08004h
   143 000002CC [6C09000000000000]          dq nulStrat
   144 000002D4 [7209000000000000]          dq nulIntr
   145 000002DC 4E554C2020202020            db "NUL     " ;Default NUL data
   146                                  
   147                                  Segment resSeg follows=.text align=1 vfollows=dSeg valign=1 
   148                                  ;-----------------------------------:
   149                                  ;       Misc System routines        :
   150                                  ;-----------------------------------:
   151                                  findLRUBuffer: 
   152                                  ;Finds least recently used buffer, links it and returns ptr to it in rbx
   153                                  ;Input: Nothing
   154                                  ;Output: rbx = Pointer to the buffer to use
   155 00000000 52                          push rdx
   156 00000001 488B1D(8F000000)            mov rbx, qword [bufHeadPtr]
   157 00000008 48813BFFFFFFFF              cmp qword [rbx + bufferHdr.nextBufPtr], -1  ;Check if 1st entry is last
   158 0000000F 7502                        jne .flb1
   159 00000011 5A                          pop rdx
   160 00000012 C3                          ret
   161                                  .flb1:
   162 00000013 4889DA                      mov rdx, rbx    ;Save a ptr to the previous buffer header
   163 00000016 488B1A                      mov rbx, qword [rdx + bufferHdr.nextBufPtr] ;Get next buffer header ptr
   164 00000019 48813BFFFFFFFF              cmp qword [rbx + bufferHdr.nextBufPtr], -1 ;Check if at LRU buffer
   165 00000020 75F1                        jne .flb1   ;If not LRU, keep walking, else process
   166 00000022 48C702FFFFFFFF              mov qword [rdx + bufferHdr.nextBufPtr], -1  ;Make prev node the LRU node
   167 00000029 488B15(8F000000)            mov rdx, qword [bufHeadPtr]    ;Now copy old MRU buffer ptr to rdx
   168 00000030 48891D(8F000000)            mov qword [bufHeadPtr], rbx    ;Sysvars to point to new buffer
   169 00000037 488913                      mov qword [rbx + bufferHdr.nextBufPtr], rdx
   170 0000003A 5A                          pop rdx
   171 0000003B C3                          ret
   172                                  
   173                                  findDPB:
   174                                  ;Finds the DPB for a given drive
   175                                  ;Input:   dl = Drive number (0=A, 1=B etc...)
   176                                  ;Output: al = 00, rbx = Pointer to the DPB
   177                                  ;        al = -1, Failed, no DPB for device, rbx destroyed
   178 0000003C 488B1D(6D000000)            mov rbx, qword [dpbHeadPtr]
   179                                  .fd1:
   180 00000043 30C0                        xor al, al
   181 00000045 3813                        cmp byte [rbx + dpb.bDriveNumber], dl
   182 00000047 740F                        je .fd2
   183 00000049 488B5B26                    mov rbx, qword [rbx + dpb.qNextDPBPtr]
   184 0000004D B0FF                        mov al, -1
   185 0000004F 4881FBFFFFFFFF              cmp rbx, -1 ;If rbx followed last item in list, no DPB exists for dl
   186 00000056 75EB                        jne .fd1
   187                                  .fd2:
   188 00000058 C3                          ret
   189                                  callCritError:
   190                                  ;Common Procedure to swap stacks and call Critical Error Interrupt
   191                                  ;-----------------------------------:
   192                                  ;       File System routines        :
   193                                  ;-----------------------------------:
   194                                  name2Clust:
   195                                  ;Converts a file name to a first cluster number
   196                                  ;-----------------------------------:
   197                                  ;        Interrupt routines         :
   198                                  ;-----------------------------------:
   199                                  terminateProcess:   ;Int 40h
   200                                  
   201                                  functionDispatch:   ;Int 41h Main function dispatcher
   202                                  ;ah = Function number, all other registers have various meanings
   203 00000059 FA                          cli ;Halt external interrupts
   204 0000005A FC                          cld ;Ensure all string ops occur in the right direction
   205 0000005B 80FC6A                      cmp ah, dispatchTableL/8    ;Number of functions
   206 0000005E 0F871E010000                ja .fdExitBad
   207                                      ;Cherry pick functions
   208 00000064 80FC33                      cmp ah, 33h ;CTRL+BREAK check
   209 00000067 722C                        jb .fsbegin   ;If below skip these checks
   210 00000069 0F8439010000                je .ctrlBreakCheck
   211 0000006F 80FC64                      cmp ah, 64h
   212 00000072 0F8430010000                je .setDriverLookahead  ;Reserved, but avoids usual Int 41h spiel
   213 00000078 771B                        ja .fsbegin   ;If above, do usual Int41 entry
   214 0000007A 80FC51                      cmp ah, 51h
   215 0000007D 0F8425010000                je .getCurrProcessID    ;This an below are exactly the same
   216 00000083 80FC62                      cmp ah, 62h
   217 00000086 0F841C010000                je .getPSPaddr          ;Calls the above function
   218 0000008C 80FC50                      cmp ah, 50h
   219 0000008F 0F8413010000                je .setCurrProcessID
   220                                  .fsbegin:
   221                                      pushDOS ;Push the usual prologue registers
   192 00000095 4151                <1>  push r9
   193 00000097 4150                <1>  push r8
   194 00000099 55                  <1>  push rbp
   195 0000009A 57                  <1>  push rdi
   196 0000009B 56                  <1>  push rsi
   197 0000009C 52                  <1>  push rdx
   198 0000009D 51                  <1>  push rcx
   199 0000009E 53                  <1>  push rbx
   200 0000009F 50                  <1>  push rax
   222 000000A0 488B05(0D010000)            mov rax, qword [oldRSP]
   223 000000A7 488905(05010000)            mov qword [oldoldRSP], rax
   224 000000AE FE05(CF000000)              inc byte [inDOS]    ;Increment in DOS flag
   225 000000B4 488925(0D010000)            mov qword [oldRSP], rsp
   226                                  ;Here, we want to save oldRSP in the callers PSP
   227 000000BB 803D(CF000000)01            cmp byte [inDOS], 1 ;Check how many times we are in DOS
   228 000000C2 750B                        jne .fsb1   ;If this is first entry, save rsp in callers PSP
   229 000000C4 488B05(DE000000)            mov rax, qword [currentPSP] ;Get current PSP address
   230 000000CB 48896046                    mov qword [rax + psp.rspPtr], rsp    ;Save rsp on callers stack
   231                                  .fsb1:
   232 000000CF 58                          pop rax     ;Get old rax back
   233 000000D0 50                          push rax    ;and push it back onto the stack
   234 000000D1 488D25(56060000)            lea rsp, critStakTop
   235 000000D8 FB                          sti         ;Reenable interrupts
   236                                  
   237 000000D9 C605(04010000)01            mov byte [int48Flag], 1 ;Make it ok to trigger Int 48h
   238                                  
   239 000000E0 48891D(15010000)            mov qword [oldRBX], rbx ;Need to do this as I might switch stacks later
   240 000000E7 0FB6DC                      movzx ebx, ah   ;Move the function number bl zero extended to rbx
   241 000000EA C1E303                      shl ebx, 3      ;Multiply the function number by 8 for offset into table
   242 000000ED 50                          push rax        ;Push rax onto the stack
   243 000000EE 488D05B4000000              lea rax, qword [.dispatchTable]
   244 000000F5 4801C3                      add rbx, rax    ;Add dispatch table offset into rbx
   245 000000F8 58                          pop rax
   246 000000F9 488B1B                      mov rbx, qword [rbx]    ;Get the address from the dispatch table
   247                                  
   248 000000FC 84E4                        test ah, ah     ;Simple Terminate function?
   249 000000FE 741C                        jz .fddiskOp
   250 00000100 80FC59                      cmp ah, 59h     ;Extended Error report?
   251 00000103 7443                        je .fdGoToFunction  ;Bypass code that clears the error report
   252 00000105 80FC0C                      cmp ah, 0Ch     ;Are we a char function?
   253 00000108 7712                        ja .fddiskOp
   254                                  ;Char operations here
   255 0000010A F605(CE000000)01            test byte [critErrFlag], 1  ;Are we in critical error?
   256 00000111 7535                        jnz .fdGoToFunction         ;If we are, stay on Critical Error Stack
   257 00000113 488D25(960C0000)            lea rsp, IOStakTop          ;Otherwise, switch to IO stack
   258 0000011A EB2C                        jmp short .fdGoToFunction
   259                                  .fddiskOp:
   260                                      ;Disk operations go here
   261                                      ;Clear up error info
   262 0000011C C605(D1000000)01            mov byte [errorLocus], 1    ;Reset to generic, unknown locus
   263 00000123 C605(CE000000)00            mov byte [critErrFlag], 0   ;Clear the Critical Error Flag
   264 0000012A C605(D0000000)FF            mov byte [errorDrv], -1     ;Set the drive which caused the error to none
   265                                  
   266 00000131 C605(04010000)00            mov byte [int48Flag], 0     ;Turn off the ability to trigger Int 48h
   267 00000138 488D25(D6120000)            lea rsp, DiskStakTop        ;Swap the stack to the Disk Transfer Stack
   268 0000013F F605(F9000000)FF            test byte [breakFlag], -1   ;Test if set
   269 00000146 7400                        jz .fdGoToFunction
   270                                  ; HANDLE CTRL+BREAK HERE!
   271                                  .fdGoToFunction:
   272 00000148 48871D(15010000)            xchg rbx, qword [oldRBX]    ;Put the call addr in oldRBX and get oldRBX back
   273                                      ;Potentially point rbp to caller reg frame for easy access of registers 
   274                                      ;mov rbp, qword [oldRSP]    ;Move rsp on entry into rbp
   275 0000014F FF15(15010000)              call qword [oldRBX]     ;Call the desired function, rax contains ret code
   276                                  .fdExit:
   277 00000155 FA                          cli     ;Redisable interrupts
   278                                      ;???
   279 00000156 FE0D(CF000000)              dec byte [inDOS]            ;Decrement the inDOS count
   280 0000015C 488B25(0D010000)            mov rsp, qword [oldRSP]     ;Point rsp to old stack
   281 00000163 48890424                    mov qword [rsp], rax    ;Put the ret code into its pos on the register frame
   282 00000167 488B05(05010000)            mov rax, qword [oldoldRSP]
   283 0000016E 488905(0D010000)            mov qword [oldRSP], rax
   284                                      popDOS  ;Pop the frame
   204 00000175 58                  <1>  pop rax
   205 00000176 5B                  <1>  pop rbx
   206 00000177 59                  <1>  pop rcx
   207 00000178 5A                  <1>  pop rdx
   208 00000179 5E                  <1>  pop rsi
   209 0000017A 5F                  <1>  pop rdi
   210 0000017B 5D                  <1>  pop rbp
   211 0000017C 4158                <1>  pop r8
   212 0000017E 4159                <1>  pop r9
   285 00000180 48CF                        iretq
   286                                  .fdExitBad:
   287 00000182 B400                        mov ah, 0
   288 00000184 48CF                        iretq
   289                                  .simpleTerminate:     ;ah = 00h
   290 00000186 C3                          ret
   291                                  .stdinReadEcho:     ;ah = 01h
   292 00000187 30E4                        xor ah, ah
   293 00000189 CD36                        int 36h
   294 0000018B CD49                        int 49h ;Pass al to fast output
   295 0000018D C3                          ret
   296                                  .stdoutWrite:       ;ah = 02h
   297                                  ;Bspace is regular cursor left, does not insert a blank
   298 0000018E 50                          push rax
   299 0000018F 88D0                        mov al, dl
   300 00000191 CD49                        int 49h
   301 00000193 58                          pop rax
   302 00000194 C3                          ret
   303                                  .stdauxRead:        ;ah = 03h
   304                                  .stdauxWrite:       ;ah = 04h
   305                                  .stdprnWrite:       ;ah = 05h
   306                                  .directCONIO:       ;ah = 06h
   307                                  .waitDirectInNoEcho:;ah = 07h
   308                                  .waitStdinNoEcho:   ;ah = 08h
   309 00000195 C3                          ret
   310                                  .printString:       ;ah = 09h
   311 00000196 50                          push rax
   312 00000197 52                          push rdx
   313                                  .ps0:
   314 00000198 8A02                        mov al, byte [rdx]
   315 0000019A 3C24                        cmp al, "$"
   316 0000019C 7407                        je .ps1
   317 0000019E 48FFC2                      inc rdx ;Goto next char
   318 000001A1 CD49                        int 49h ;Print char in al
   319 000001A3 EBF3                        jmp short .ps0
   320                                  .ps1:
   321 000001A5 5A                          pop rdx
   322 000001A6 58                          pop rax
   323 000001A7 C3                          ret
   324                                  .buffStdinInput:    ;ah = 0Ah
   325                                  .checkStdinStatus:  ;ah = 0Bh
   326                                  .clearbuffDoFunc:   ;ah = 0Ch
   327                                  .diskReset:         ;ah = 0Dh
   328                                  .selectDisk:        ;ah = 0Eh
   329                                  .openFileFCB:       ;ah = 0Fh
   330                                  .closeFileFCB:      ;ah = 10h
   331                                  .findFirstFileFCB:  ;ah = 11h
   332                                  .findNextFileFCB:   ;ah = 12h
   333                                  .deleteFileFCB:     ;ah = 13h
   334                                  .sequentialReadFCB: ;ah = 14h
   335                                  .sequentialWriteFCB:;ah = 15h
   336                                  .createFileFCB:     ;ah = 16h
   337                                  .renameFileFCB:     ;ah = 17h
   338                                                      ;ah = 18h unused
   339                                  .getCurrentDisk:       ;ah = 19h, get current default drive
   340                                  .setDTA:            ;ah = 1Ah
   341                                  .FATinfoDefault:    ;ah = 1Bh
   342                                  .FatinfoDevice:     ;ah = 1Ch
   343                                                      ;ah = 1Dh unused
   344                                                      ;ah = 1Eh unused
   345                                  .getCurrentDPBptr:  ;ah = 1Fh, simply calls int 41h ah = 32h with dl = 0
   346                                                      ;ah = 20h unused
   347                                  .randomReadFCB:     ;ah = 21h
   348                                  .randomWriteFCB:    ;ah = 22h
   349                                  .getFileSizeFCB:    ;ah = 23h
   350                                  .setRelRecordFCB:   ;ah = 24h
   351                                  .setIntVector:      ;ah = 25h
   352                                  .createNewPSP:      ;ah = 26h
   353                                  .randBlockReadFCB:  ;ah = 27h
   354                                  .randBlockWriteFCB: ;ah = 28h
   355                                  .parseFilenameFCB:  ;ah = 29h
   356                                  .getDate:           ;ah = 2Ah
   357                                  .setDate:           ;ah = 2Bh
   358                                  .getTime:           ;ah = 2Ch
   359                                  .setTime:           ;ah = 2Dh
   360                                  .setResetVerify:    ;ah = 2Eh, turns ALL writes to write + verify
   361                                  .getDTA:            ;ah = 2Fh
   362                                  .getDOSversion:     ;ah = 30h
   363                                  .terminateStayRes:  ;ah = 31h
   364                                  .getDeviceDPBptr:   ;ah = 32h
   365                                  .ctrlBreakCheck:    ;ah = 33h
   366                                  .getInDOSflagPtr:   ;ah = 34h
   367                                  .getIntVector:      ;ah = 35h
   368                                  .getDiskFreeSpace:  ;ah = 36h
   369                                  .getsetSwitchChar:  ;ah = 37h, allows changing default switch from / to anything
   370                                  .getsetCountryInfo: ;ah = 38h, localisation info
   371                                  .makeDIR:           ;ah = 39h
   372                                  .removeDIR:         ;ah = 3Ah
   373                                  .changeCurrentDIR:  ;ah = 3Bh, changes directory for current drive
   374                                  .createFileHdl:     ;ah = 3Ch, handle function
   375                                  .openFileHdl:       ;ah = 3Dh, handle function
   376                                  .closeFileHdl:      ;ah = 3Eh, handle function
   377                                  .readFileHdl:       ;ah = 3Fh, handle function
   378                                  .writeFileHdl:      ;ah = 40h, handle function
   379                                  .deleteFileHdl:     ;ah = 41h, handle function, delete from specified dir
   380                                  .movFileReadPtr:    ;ah = 42h, handle function, LSEEK
   381                                  .changeFileModeHdl: ;ah = 43h, handle function, CHMOD
   382                                  .ioctrl:            ;ah = 44h, handle function
   383                                  .duplicateHandle:   ;ah = 45h, handle function
   384                                  .forceDuplicateHdl: ;ah = 46h, handle function
   385                                  .getCurrentDIR:     ;ah = 47h
   386                                  .allocateMemory:    ;ah = 48h
   387                                  .freeMemory:        ;ah = 49h
   388                                  .reallocMemory:     ;ah = 4Ah
   389                                  .loadExecChild:     ;ah = 4Bh, EXEC
   390                                  .terminateClean:    ;ah = 4Ch, EXIT
   391                                  .getRetCodeChild:   ;ah = 4Dh, WAIT, get ret code of subprocess
   392                                  .findFirstFileHdl:  ;ah = 4Eh, handle function, Find First Matching File
   393                                  .findNextFileHdl:   ;ah = 4Fh, handle function, Find Next Matching File
   394                                  .setCurrProcessID:  ;ah = 50h, set current process ID
   395                                  .getCurrProcessID:  ;ah = 51h, get current process ID
   396                                  .getSysVarsPtr:     ;ah = 52h
   397                                  .createDPB:         ;ah = 53h, generates a DPB from a given BPB
   398                                  .getVerifySetting:  ;ah = 54h
   399                                  .createPSP:         ;ah = 55h, creates a PSP for a program
   400                                  .renameFile:        ;ah = 56h
   401                                  .getSetFileDateTime:;ah = 57h
   402                                  .getsetMallocStrat: ;ah = 58h
   403                                  .getExtendedError:  ;ah = 59h
   404                                  .createUniqueFile:  ;ah = 5Ah, attempts to make a file with a unique filename
   405                                  .createNewFile:     ;ah = 5Bh
   406                                  .lockUnlockFile:    ;ah = 5Ch
   407                                  .getCritErrorInfo:  ;ah = 5Dh
   408                                  .networkServices:   ;ah = 5Eh, do nothing
   409                                  .networkRedirection:;ah = 5Fh, do nothing
   410                                  .trueName:          ;ah = 60h, get fully qualified name
   411                                                      ;ah = 61h, reserved
   412                                  .getPSPaddr:        ;ah = 62h, gives PSP addr/Process ID
   413                                                      ;ah = 63h, reserved
   414                                  .setDriverLookahead:;ah = 64h, reserved
   415                                  .getExtLocalInfo:   ;ah = 65h, Get Extended Country Info
   416                                  .getsetGlobalCP:    ;ah = 66h, Get/Set Global Codepage, reserved
   417                                  .setHandleCount:    ;ah = 67h
   418                                  .commitFile:        ;ah = 68h, flushes buffers for handle to disk 
   419                                  .getsetDiskSerial:  ;ah = 69h, get/set disk serial number
   420                                  .return:
   421 000001A8 C3                          ret
   422                                  
   423                                  
   424                                  .dispatchTable:
   425 000001A9 [8601000000000000]          dq .simpleTerminate     ;AH = 00H, PROCESS MANAGEMENT
   426 000001B1 [8701000000000000]          dq .stdinReadEcho       ;AH = 01H, CHAR IO
   427 000001B9 [8E01000000000000]          dq .stdoutWrite         ;AH = 02H, CHAR IO
   428 000001C1 [9501000000000000]          dq .stdauxRead          ;AH = 03H, CHAR IO
   429 000001C9 [9501000000000000]          dq .stdauxWrite         ;AH = 04H, CHAR IO
   430 000001D1 [9501000000000000]          dq .stdprnWrite         ;AH = 05H, CHAR IO
   431 000001D9 [9501000000000000]          dq .directCONIO         ;AH = 06H, CHAR IO
   432 000001E1 [9501000000000000]          dq .waitDirectInNoEcho  ;AH = 07H, CHAR IO
   433 000001E9 [9501000000000000]          dq .waitStdinNoEcho     ;AH = 08H, CHAR IO
   434 000001F1 [9601000000000000]          dq .printString         ;AH = 09H, CHAR IO
   435 000001F9 [A801000000000000]          dq .buffStdinInput      ;AH = 0AH, CHAR IO
   436 00000201 [A801000000000000]          dq .checkStdinStatus    ;AH = 0BH, CHAR IO
   437 00000209 [A801000000000000]          dq .clearbuffDoFunc     ;AH = 0CH, CHAR IO
   438 00000211 [A801000000000000]          dq .diskReset           ;AH = 0DH, DISK MANAGEMENT
   439 00000219 [A801000000000000]          dq .selectDisk          ;AH = 0EH, DISK MANAGEMENT
   440 00000221 [A801000000000000]          dq .openFileFCB         ;AH = 0FH, FILE OPERATION       FCB
   441 00000229 [A801000000000000]          dq .closeFileFCB        ;AH = 10H, FILE OPERATION       FCB
   442 00000231 [A801000000000000]          dq .findFirstFileFCB    ;AH = 11H, FILE OPERATION       FCB
   443 00000239 [A801000000000000]          dq .findNextFileFCB     ;AH = 12H, FILE OPERATION       FCB
   444 00000241 [A801000000000000]          dq .deleteFileFCB       ;AH = 13H, FILE OPERATION       FCB
   445 00000249 [A801000000000000]          dq .sequentialReadFCB   ;AH = 14H, RECORD OPERATION     FCB
   446 00000251 [A801000000000000]          dq .sequentialWriteFCB  ;AH = 15H, RECORD OPERTAION     FCB
   447 00000259 [A801000000000000]          dq .createFileFCB       ;AH = 16H, FILE OPERATION       FCB
   448 00000261 [A801000000000000]          dq .renameFileFCB       ;AH = 17H, FILE OPERATION       FCB
   449 00000269 [A801000000000000]          dq .return              ;AH = 18H, RESERVED
   450 00000271 [A801000000000000]          dq .getCurrentDisk      ;AH = 19H, DISK MANAGEMENT
   451 00000279 [A801000000000000]          dq .setDTA              ;AH = 1AH, RECORD OPERATION     F/H
   452 00000281 [A801000000000000]          dq .FATinfoDefault      ;AH = 1BH, DISK MANAGEMENT
   453 00000289 [A801000000000000]          dq .FatinfoDevice       ;AH = 1CH, DISK MANAGEMENT
   454 00000291 [A801000000000000]          dq .return              ;AH = 1DH, RESERVED
   455 00000299 [A801000000000000]          dq .return              ;AH = 1EH, RESERVED
   456 000002A1 [A801000000000000]          dq .getCurrentDPBptr    ;AH = 1FH, RESERVED INTERNAL, GET CURR DRIVE DPB PTR
   457 000002A9 [A801000000000000]          dq .return              ;AH = 20H, RESERVED
   458 000002B1 [A801000000000000]          dq .randomReadFCB       ;AH = 21H, RECORD OPERATION     FCB
   459 000002B9 [A801000000000000]          dq .randomWriteFCB      ;AH = 22H, RECORD OPERATION     FCB
   460 000002C1 [A801000000000000]          dq .getFileSizeFCB      ;AH = 23H, FILE OPERATION       FCB
   461 000002C9 [A801000000000000]          dq .setRelRecordFCB     ;AH = 24H, RECORD OPERATION     FCB
   462 000002D1 [A801000000000000]          dq .setIntVector        ;AH = 25H, MISC. SYS. FUNCTION
   463 000002D9 [A801000000000000]          dq .createNewPSP        ;AH = 26H, PROCESS MANAGEMENT
   464 000002E1 [A801000000000000]          dq .randBlockReadFCB    ;AH = 27H, RECORD OPERATION     FCB
   465 000002E9 [A801000000000000]          dq .randBlockWriteFCB   ;AH = 28H, RECORD OPERATION     FCB
   466 000002F1 [A801000000000000]          dq .parseFilenameFCB    ;AH = 29H, FILE OPERATION       FCB
   467 000002F9 [A801000000000000]          dq .getDate             ;AH = 2AH, TIME AND DATE
   468 00000301 [A801000000000000]          dq .setDate             ;AH = 2BH, TIME AND DATE
   469 00000309 [A801000000000000]          dq .getTime             ;AH = 2CH, TIME AND DATE
   470 00000311 [A801000000000000]          dq .setTime             ;AH = 2DH, TIME AND DATE
   471 00000319 [A801000000000000]          dq .setResetVerify      ;AH = 2EH, DISK MANAGEMENT
   472 00000321 [A801000000000000]          dq .getDTA              ;AH = 2FH, RECORD OPERATION     F/H
   473 00000329 [A801000000000000]          dq .getDOSversion       ;AH = 30H, MISC. SYS. FUNCTION
   474 00000331 [A801000000000000]          dq .terminateStayRes    ;AH = 31H, PROCESS MANAGEMENT
   475 00000339 [A801000000000000]          dq .getDeviceDPBptr     ;AH = 32H, RESERVED INTERNAL, GET DEVICE DPB PTR
   476 00000341 [A801000000000000]          dq .ctrlBreakCheck      ;AH = 33H, MISC. SYS. FUNCTION
   477 00000349 [A801000000000000]          dq .getInDOSflagPtr     ;AH = 34H, RESERVED INTERNAL, GET PTR TO INDOS FLAG
   478 00000351 [A801000000000000]          dq .getIntVector        ;AH = 35H, MISC. SYS. FUNCTION
   479 00000359 [A801000000000000]          dq .getDiskFreeSpace    ;AH = 36H, DISK MANAGEMENT
   480 00000361 [A801000000000000]          dq .getsetSwitchChar    ;AH = 37H, RESERVED INTERNAL, CHANGE SWITCH CHAR
   481 00000369 [A801000000000000]          dq .getsetCountryInfo   ;AH = 38H, MISC. SYS. FUNCTION
   482 00000371 [A801000000000000]          dq .makeDIR             ;AH = 39H, DIRECTORY OPERATION
   483 00000379 [A801000000000000]          dq .removeDIR           ;AH = 3AH, DIRECTORY OPERATION
   484 00000381 [A801000000000000]          dq .changeCurrentDIR    ;AH = 3BH, DIRECTORY OPERATION
   485 00000389 [A801000000000000]          dq .createFileHdl       ;AH = 3CH, FILE OPERATION       HANDLE
   486 00000391 [A801000000000000]          dq .openFileHdl         ;AH = 3DH, FILE OPERATION       HANDLE
   487 00000399 [A801000000000000]          dq .closeFileHdl        ;AH = 3EH, FILE OPERATION       HANDLE
   488 000003A1 [A801000000000000]          dq .readFileHdl         ;AH = 3FH, RECORD OPERATION     HANDLE
   489 000003A9 [A801000000000000]          dq .writeFileHdl        ;AH = 40H, RECORD OPERATION     HANDLE
   490 000003B1 [A801000000000000]          dq .deleteFileHdl       ;AH = 41H, FILE OPERATION       HANDLE
   491 000003B9 [A801000000000000]          dq .movFileReadPtr      ;AH = 42H, RECORD OPERATION     HANDLE
   492 000003C1 [A801000000000000]          dq .changeFileModeHdl   ;AH = 43H, FILE OPERATION       HANDLE
   493 000003C9 [A801000000000000]          dq .ioctrl              ;AH = 44H, MISC. SYS. FUNCTION
   494 000003D1 [A801000000000000]          dq .duplicateHandle     ;AH = 45H, FILE OPERATION       HANDLE
   495 000003D9 [A801000000000000]          dq .forceDuplicateHdl   ;AH = 46H, FILE OPERATION       HANDLE
   496 000003E1 [A801000000000000]          dq .getCurrentDIR       ;AH = 47H, DIRECTORY OPERATION
   497 000003E9 [A801000000000000]          dq .allocateMemory      ;AH = 48H, MEMORY MANAGEMENT
   498 000003F1 [A801000000000000]          dq .freeMemory          ;AH = 49H, MEMORY MANAGEMENT
   499 000003F9 [A801000000000000]          dq .reallocMemory       ;AH = 4AH, MEMORY MANAGEMENT
   500 00000401 [A801000000000000]          dq .loadExecChild       ;AH = 4BH, PROCESS MANAGEMENT
   501 00000409 [A801000000000000]          dq .terminateClean      ;AH = 4CH, PROCESS MANAGEMENT
   502 00000411 [A801000000000000]          dq .getRetCodeChild     ;AH = 4DH, PROCESS MANAGEMENT
   503 00000419 [A801000000000000]          dq .findFirstFileHdl    ;AH = 4EH, FILE OPERATION       HANDLE
   504 00000421 [A801000000000000]          dq .findNextFileHdl     ;AH = 4FH, FILE OPERATION       HANDLE
   505 00000429 [A801000000000000]          dq .setCurrProcessID    ;AH = 50H, RESERVED INTERNAL, SET CURRENT PROCESS ID
   506 00000431 [A801000000000000]          dq .getCurrProcessID    ;AH = 51H, RESERVED INTERNAL, GET CURRENT PROCESS ID
   507 00000439 [A801000000000000]          dq .getSysVarsPtr       ;AH = 52H, RESERVED INTERNAL, GET SYSVARS POINTER
   508 00000441 [A801000000000000]          dq .createDPB           ;AH = 53H, RESERVED INTERNAL, TRANSLATE A BPB TO DPB
   509 00000449 [A801000000000000]          dq .getVerifySetting    ;AH = 54H, DISK MANAGEMENT
   510 00000451 [A801000000000000]          dq .createPSP           ;AH = 55H, RESERVED INTERNAL, CREATE A PSP
   511 00000459 [A801000000000000]          dq .renameFile          ;AH = 56H, FILE OPERATION       HANDLE
   512 00000461 [A801000000000000]          dq .getSetFileDateTime  ;AH = 57H, FILE OPERATION       HANDLE
   513 00000469 [A801000000000000]          dq .getsetMallocStrat   ;AH = 58H, MEMORY MANAGEMENT
   514 00000471 [A801000000000000]          dq .getExtendedError    ;AH = 59H, MISC. SYS. FUNCTION
   515 00000479 [A801000000000000]          dq .createUniqueFile    ;AH = 5AH, FILE OPERATION       HANDLE
   516 00000481 [A801000000000000]          dq .createNewFile       ;AH = 5BH, FILE OPERATION       HANDLE
   517 00000489 [A801000000000000]          dq .lockUnlockFile      ;AH = 5CH, RECORD OPERATION     HANDLE
   518 00000491 [A801000000000000]          dq .getCritErrorInfo    ;AH = 5DH, RESERVED INTERNAL, GET CRIT. ERROR DATA
   519 00000499 [A801000000000000]          dq .networkServices     ;AH = 5EH, RESERVED NETWORK FUNCTION
   520 000004A1 [A801000000000000]          dq .networkRedirection  ;AH = 5FH, RESERVED NETWORK FUNCTION
   521 000004A9 [A801000000000000]          dq .trueName            ;AH = 60H, RESERVED INTERNAL, GET TRUE NAME
   522 000004B1 [A801000000000000]          dq .return              ;AH = 61H, RESERVED
   523 000004B9 [A801000000000000]          dq .getPSPaddr          ;AH = 62H, PROCESS MANAGEMENT
   524 000004C1 [A801000000000000]          dq .return              ;AH = 63H, RESERVED
   525 000004C9 [A801000000000000]          dq .setDriverLookahead  ;AH = 64H, RESERVED INTERNAL, DRIVER LOOKAHEAD
   526 000004D1 [A801000000000000]          dq .getExtLocalInfo     ;AH = 65H, MISC. SYS. FUNCTION
   527 000004D9 [A801000000000000]          dq .getsetGlobalCP      ;AH = 66H, MISC. SYS. FUNCTION
   528 000004E1 [A801000000000000]          dq .setHandleCount      ;AH = 67H, FILE OPERAITON       F/H
   529 000004E9 [A801000000000000]          dq .commitFile          ;AH = 68H, FILE OPERATION       HANDLE
   530 000004F1 [A801000000000000]          dq .getsetDiskSerial    ;AH = 69H, RESERVED INTERNAL, GET/SET DISK SER. NUM
   531                                  dispatchTableL  equ $ - .dispatchTable 
   532                                  
   533                                  terminateHandler:   ;Int 42h
   534                                  ctrlCHandler:       ;Int 43h
   535                                  critErrorHandler:   ;Int 44h
   536                                  ;User Stack in usage here, must be swapped to before this is called
   537                                  ;Entered with:  
   538                                  ;               AH = Critical Error Bitfield
   539                                  ;               Bit 7 = 0 - Disk Error, Bit 7 = 1 - Char Device Error
   540                                  ;               Bit 6 - Reserved
   541                                  ;               Bit 5 = 0 - IGNORE not allowed, Bit 5 = 1 - IGNORE allowed
   542                                  ;               Bit 4 = 0 - RETRY not allowed, Bit 4 = 1 - RETRY allowed
   543                                  ;               Bit 3 = 0 - FAIL not allowed, Bit 3 = 1 - FAIL allowed
   544                                  ;               Bits [2-1] = Affected Disk Error
   545                                  ;                     0 0   DOS area
   546                                  ;                     0 1   FAT area
   547                                  ;                     1 0   Directory area
   548                                  ;                     1 1   Data area
   549                                  ;               Bit 0 = 0 - Read Operation, Bit 0 = 1 - Write Operation
   550                                  ;               AL  = Failing drive number if AH[7] = 0
   551                                  ;               DIL = Error code for errorMsg
   552                                  ;               RSI = EA of Device Header for which device the error occured
   553                                  ;Return:
   554                                  ;               AL = 0 - Ignore the Error       (Ignore)
   555                                  ;                  = 1 - Retry the Operation    (Retry)
   556                                  ;                  = 2 - Terminate the Program  (Abort)
   557                                  ;                  = 3 - Fail the DOS call      (Fail)
   558 000004F9 53                          push rbx
   559 000004FA 51                          push rcx
   560 000004FB 52                          push rdx
   561 000004FC 57                          push rdi
   562 000004FD 56                          push rsi
   563 000004FE FC                          cld         ;Make String ops go forward
   564                                  
   565 000004FF 6689C3                      mov bx, ax  ;Save ah in bh and al in bl (if needed)
   566 00000502 488D155E020000              lea rdx, qword [.crlf]
   567 00000509 B409                        mov ah, 09h ;Print String
   568 0000050B CD41                        int 41h     ;Call DOS to print CRLF part of message
   569                                  
   570 0000050D 81E7FF000000                and edi, 00FFh   ;Zero the upper bytes of DI just in case
   571 00000513 B90C000000                  mov ecx, 0Ch
   572 00000518 39CF                        cmp edi, ecx  ;Check if the error number is erroniously above Gen Error
   573 0000051A 0F47F9                      cmova edi, ecx  ;If it is, move Gen Error into edi
   574 0000051D 480FB7FF                    movzx rdi, di
   575 00000521 4889FA                      mov rdx, rdi    ;Copy error code
   576 00000524 48C1E704                    shl rdi, 4  ;Multiply by 16
   577 00000528 48D1E2                      shl rdx, 1  ;Multiply by 2
   578 0000052B 4801D7                      add rdi, rdx    ;Add the resultant multiplications
   579 0000052E 488D1523010000              lea rdx, qword [.errorMsgTable]
   580 00000535 488D143A                    lea rdx, qword [rdx+rdi]   ;Load EA to rdx
   581 00000539 B409                        mov ah, 09h ;Print String
   582 0000053B CD41                        int 41h     ;Call DOS to print first part of message
   583                                  
   584 0000053D 488D1505020000              lea rdx, qword [.readmsg]
   585 00000544 488D3D0D020000              lea rdi, qword [.writemsg]
   586 0000054B F6C701                      test bh, 1  ;Bit 0 is set if write operation
   587 0000054E 480F45D7                    cmovnz rdx, rdi ;Move the correct r/w part of the message to rdx
   588 00000552 B409                        mov ah, 09h ;Print String
   589 00000554 CD41                        int 41h     ;Call DOS to print error reading/writing portion
   590                                  
   591 00000556 F6C780                      test bh, 80h    ;Test bit 7 for char/Disk assertation
   592 00000559 0F85DF000000                jnz .charError
   593                                  ;Disk error continues here
   594 0000055F 488D15DC010000              lea rdx, qword [.drive] ;Drive message
   595 00000566 B409                        mov ah, 09h
   596 00000568 CD41                        int 41h
   597 0000056A 88DA                        mov dl, bl  ;Get zero based drive number into dl
   598 0000056C 80C241                      add dl, "A" ;Add ASCII code
   599 0000056F B402                        mov ah, 02h ;Print char in dl
   600 00000571 CD41                        int 41h
   601                                  .userInput:
   602 00000573 488D15ED010000              lea rdx, qword [.crlf]  ;Print new line
   603 0000057A B409                        mov ah, 09h
   604 0000057C CD41                        int 41h
   605                                  ;Abort, Retry, Ignore, Fail is word order
   606                                  ;Last message gets a ?, otherwise a comma followed by a 20h (space)
   607                                  .userAbort:
   608                                  ;Abort is always an option
   609 0000057E 488D15E5010000              lea rdx, qword [.abortmsg]
   610 00000585 B409                        mov ah, 09h
   611 00000587 CD41                        int 41h ;Call DOS to prompt user for ABORT option
   612                                  .userRetry:
   613 00000589 F6C710                      test bh, 10h  ;Bit 4 is retry bit
   614 0000058C 7416                        jz .userIgnore    ;If clear, dont print message
   615 0000058E 488D15ED010000              lea rdx, qword [.betweenMsg]
   616 00000595 B409                        mov ah, 09h
   617 00000597 CD41                        int 41h
   618 00000599 488D15D7010000              lea rdx, qword [.retrymsg]
   619 000005A0 B409                        mov ah, 09h
   620 000005A2 CD41                        int 41h
   621                                  .userIgnore:
   622 000005A4 F6C720                      test bh, 20h    ;Bit 5 is ignore bit
   623 000005A7 7416                        jz .userFail
   624 000005A9 488D15D2010000              lea rdx, qword [.betweenMsg]
   625 000005B0 B409                        mov ah, 09h
   626 000005B2 CD41                        int 41h
   627 000005B4 488D15B5010000              lea rdx, qword [.ignoremsg]
   628 000005BB B409                        mov ah, 09h
   629 000005BD CD41                        int 41h
   630                                  .userFail:
   631 000005BF F6C708                      test bh, 08h    ;Bit 3 is Fail bit
   632 000005C2 7416                        jz .userMsgEnd
   633 000005C4 488D15B7010000              lea rdx, qword [.betweenMsg]
   634 000005CB B409                        mov ah, 09h
   635 000005CD CD41                        int 41h
   636 000005CF 488D15A7010000              lea rdx, qword [.failmsg]
   637 000005D6 B409                        mov ah, 09h
   638 000005D8 CD41                        int 41h
   639                                  .userMsgEnd:
   640 000005DA 488D15A4010000              lea rdx, qword [.endMsg]
   641 000005E1 B409                        mov ah, 09h
   642 000005E3 CD41                        int 41h
   643                                  ;Get user input now 
   644 000005E5 31C9                        xor ecx, ecx  ;4 Possible Responses
   645 000005E7 488D3D9A010000              lea rdi, qword [.responses] ;Go to start of string
   646 000005EE B401                        mov ah, 01h ;STDIN without Console Echo
   647 000005F0 CD41                        int 41h ;Get char in al
   648 000005F2 3C61                        cmp al, "a" ;Chack if lowercase
   649 000005F4 7202                        jb .uip1    ;If the value is below, ignore subtraction
   650 000005F6 2C20                        sub al, "a"-"A"  ;Turn the char into uppercase
   651                                  .uip1:
   652 000005F8 AE                          scasb   ;Compare char to list, offset gives return code
   653 000005F9 740F                        je .validInput  ;If they are equal, ecx has return code
   654 000005FB FFC1                        inc ecx
   655 000005FD 81F904000000                cmp ecx, 4
   656 00000603 75F3                        jne .uip1
   657 00000605 E969FFFFFF                  jmp .userInput ;If valid char not found, keep waiting 
   658                                  .validInput:
   659 0000060A 88C8                        mov al, cl  ;Move the offset into .responses into al
   660                                  ;Now check if the input is permitted
   661 0000060C 3C02                        cmp al, 2   ;Check if abort, abort always permitted
   662 0000060E 7427                        je .cehExit
   663 00000610 84C0                        test al, al ;Check if 0 => Ignore
   664 00000612 740F                        je .viIgnore
   665 00000614 3C01                        cmp al, 1   ;Check if 1 => Retry
   666 00000616 7416                        je .viRetry
   667                                  .viFail:    ;Fallthrough for fail (al = 3)
   668 00000618 F6C708                      test bh, 8  ;Bit 3 is Fail bit
   669 0000061B 0F8452FFFFFF                jz .userInput  ;If bit 3 is zero, prompt and get input again
   670 00000621 EB14                        jmp short .cehExit
   671                                  .viIgnore:
   672 00000623 F6C720                      test bh, 20h    ;Bit 5 is Ignore bit
   673 00000626 0F8447FFFFFF                jz .userInput
   674 0000062C EB09                        jmp short .cehExit
   675                                  .viRetry:
   676 0000062E F6C710                      test bh, 10h    ;Bit 4 is Retry bit
   677 00000631 0F843CFFFFFF                jz .userInput
   678                                  .cehExit:
   679 00000637 5E                          pop rsi
   680 00000638 5F                          pop rdi
   681 00000639 5A                          pop rdx
   682 0000063A 59                          pop rcx
   683 0000063B 5B                          pop rbx
   684 0000063C 48CF                        iretq
   685                                  .charError:
   686 0000063E B908000000                  mov ecx, 8  ;8 chars in device name
   687 00000643 4881C61A000000              add rsi, drvHdr.drvNam  ;Get the address of the Drive name
   688                                  .ce1:
   689 0000064A AC                          lodsb   ;Get a string char into al and inc rsi
   690 0000064B 88C2                        mov dl, al  ;Move char into dl
   691 0000064D B402                        mov ah, 02h
   692 0000064F CD41                        int 41h ;Print char
   693 00000651 E2F7                        loop .ce1   ;Keep looping until all 8 char device chars have been printed
   694 00000653 E91BFFFFFF                  jmp .userInput
   695                                  
   696                                  .errorMsgTable: ;Each table entry is 18 chars long
   697 00000658 57726974652050726F-                 db "Write Protect $   "       ;Error 0
   697 00000661 746563742024202020 
   698 0000066A 556E6B6E6F776E2055-                 db "Unknown Unit $    "       ;Error 1
   698 00000673 6E6974202420202020 
   699 0000067C 4E6F74205265616479-                 db "Not Ready $       "       ;Error 2
   699 00000685 202420202020202020 
   700 0000068E 556E6B6E6F776E2043-                 db "Unknown Command $ "       ;Error 3
   700 00000697 6F6D6D616E64202420 
   701 000006A0 446174612024202020-                 db "Data $            "       ;Error 4
   701 000006A9 202020202020202020 
   702 000006B2 426164205265717565-                 db "Bad Request $     "       ;Error 5
   702 000006BB 737420242020202020 
   703 000006C4 5365656B2024202020-                 db "Seek $            "       ;Error 6
   703 000006CD 202020202020202020 
   704 000006D6 556E6B6E6F776E204D-                 db "Unknown Media $   "       ;Error 7
   704 000006DF 656469612024202020 
   705 000006E8 536563746F72204E6F-                 db "Sector Not Found $"       ;Error 8
   705 000006F1 7420466F756E642024 
   706 000006FA 4F7574204F66205061-                 db "Out Of Paper $    "       ;Error 9
   706 00000703 706572202420202020 
   707 0000070C 577269746520466175-                 db "Write Fault $     "       ;Error A
   707 00000715 6C7420242020202020 
   708 0000071E 52656164204661756C-                 db "Read Fault $      "       ;Error B
   708 00000727 742024202020202020 
   709 00000730 47656E6572616C2046-                 db "General Failure $ "       ;Error C
   709 00000739 61696C757265202420 
   710                                  
   711 00000742 64726976652024          .drive      db "drive $"
   712 00000749 6572726F7220726561-     .readmsg    db "error reading $"
   712 00000752 64696E672024       
   713 00000758 6572726F7220777269-     .writemsg   db "error writing $"
   713 00000761 74696E672024       
   714 00000767 0A0D24                  .crlf       db 0Ah, 0Dh, "$"
   715 0000076A 41626F727424            .abortmsg   db "Abort$" 
   716 00000770 49676E6F726524          .ignoremsg  db "Ignore$"
   717 00000777 526574727924            .retrymsg   db "Retry$"
   718 0000077D 4661696C24              .failmsg    db "Fail$"
   719 00000782 2C2024                  .betweenMsg db ", $"
   720 00000785 3F2024                  .endMsg     db "? $"
   721 00000788 49524146                .responses  db "IRAF"   ;Abort Retry Ignore Fail
   722                                  absDiskRead:        ;Int 45h
   723                                  ;al = Drive number
   724                                  ;rbx = Memory Buffer address
   725                                  ;ecx = Number of sectors to read (max 255 for now)
   726                                  ;rdx = Start LBA to read from
   727 0000078C 480FB6C0                    movzx rax, al   ;Zero extend DOS drive number 
   728 00000790 8A80[4E0D0000]              mov al, byte [msdDriver.msdBIOSmap + rax] ;Get translated BIOS num into al
   729 00000796 4891                        xchg rax, rcx
   730 00000798 4887CA                      xchg rcx, rdx
   731 0000079B B482                        mov ah, 82h
   732 0000079D CD33                        int 33h
   733 0000079F 48CF                        iretq
   734                                  absDiskWrite:       ;Int 46h
   735 000007A1 480FB6C0                    movzx rax, al   ;Zero extend DOS drive number 
   736 000007A5 8A80[4E0D0000]              mov al, byte [msdDriver.msdBIOSmap + rax] ;Get translated BIOS num into al
   737 000007AB 4891                        xchg rax, rcx
   738 000007AD 4887CA                      xchg rcx, rdx
   739 000007B0 B483                        mov ah, 83h
   740 000007B2 CD33                        int 33h
   741 000007B4 48CF                        iretq
   742                                  terminateResident:  ;Int 47h
   743                                  inDosHandler:       ;Int 48h
   744                                  ;Called when DOS idle
   745 000007B6 48CF                        iretq
   746                                  fastOutput:         ;Int 49h
   747                                  ;Called with char to transfer in al
   748 000007B8 50                          push rax
   749 000007B9 B40E                        mov ah, 0Eh
   750 000007BB CD30                        int 30h
   751 000007BD 58                          pop rax
   752 000007BE 48CF                        iretq
   753                                  passCommand:        ;Int 4Eh, hooked by COMMAND.COM
   754 000007C0 48CF                        iretq
   755                                  multiplex:          ;Int 4Fh, kept as iretq for now
   756 000007C2 48CF                        iretq
   757                                  ;-----------------------------------:
   758                                  ;          Driver routines          :
   759                                  ;-----------------------------------:
   760                                  drivers:
   761                                  conHdr:
   762 000007C4 [E607000000000000]          dq auxHdr
   763 000007CC 1308                        dw 0813h
   764 000007CE [5C09000000000000]          dq commonStrat
   765 000007D6 [7309000000000000]          dq conDriver
   766 000007DE 434F4E2020202020            db "CON     "
   767                                  auxHdr:
   768 000007E6 [0808000000000000]          dq prnHdr
   769 000007EE 0080                        dw 08000h
   770 000007F0 [5C09000000000000]          dq commonStrat
   771 000007F8 [2E0A000000000000]          dq com1Intr
   772 00000800 4155582020202020            db "AUX     "
   773                                  prnHdr:
   774 00000808 [2A08000000000000]          dq clkHdr
   775 00000810 40A0                        dw 0A040h
   776 00000812 [5C09000000000000]          dq commonStrat
   777 0000081A [F608000000000000]          dq lpt1Hdr
   778 00000822 50524E2020202020            db "PRN     "
   779                                  clkHdr:
   780 0000082A [4C08000000000000]          dq msdHdr
   781 00000832 0880                        dw 08008h
   782 00000834 [5C09000000000000]          dq commonStrat
   783 0000083C [2E0A000000000000]          dq clkDriver
   784 00000844 434C4F434B242020            db "CLOCK$  "
   785                                  msdHdr:
   786 0000084C [6E08000000000000]          dq com1Hdr
   787 00000854 0008                        dw 00800h   ;Once Generic IO implemented, change to 00840h
   788 00000856 [5C09000000000000]          dq commonStrat
   789 0000085E [D90A000000000000]          dq msdDriver
   790 00000866 0000000000000000            db 0,0,0,0,0,0,0,0
   791                                  com1Hdr:
   792 0000086E [9008000000000000]          dq com2Hdr
   793 00000876 0080                        dw 08000h
   794 00000878 [5C09000000000000]          dq commonStrat
   795 00000880 [2E0A000000000000]          dq com1Intr
   796 00000888 434F4D3120202020            db "COM1    "
   797                                  com2Hdr:
   798 00000890 [B208000000000000]          dq com3Hdr
   799 00000898 0080                        dw 08000h
   800 0000089A [5C09000000000000]          dq commonStrat
   801 000008A2 [370A000000000000]          dq com2Intr
   802 000008AA 434F4D3220202020            db "COM2    "
   803                                  com3Hdr:
   804 000008B2 [D408000000000000]          dq com4Hdr
   805 000008BA 0080                        dw 08000h
   806 000008BC [5C09000000000000]          dq commonStrat
   807 000008C4 [400A000000000000]          dq com3Intr
   808 000008CC 434F4D3320202020            db "COM3    "
   809                                  com4Hdr:
   810 000008D4 [F608000000000000]          dq lpt1Hdr
   811 000008DC 0080                        dw 08000h
   812 000008DE [5C09000000000000]          dq commonStrat
   813 000008E6 [490A000000000000]          dq com4Intr
   814 000008EE 434F4D3420202020            db "COM4    "
   815                                  lpt1Hdr:
   816 000008F6 [1809000000000000]          dq lpt2Hdr
   817 000008FE 40A0                        dw 0A040h
   818 00000900 [5C09000000000000]          dq commonStrat
   819 00000908 [C90A000000000000]          dq lptDriver
   820 00000910 4C50543120202020            db "LPT1    "
   821                                  lpt2Hdr:
   822 00000918 [3A09000000000000]          dq lpt3Hdr
   823 00000920 40A0                        dw 0A040h
   824 00000922 [5C09000000000000]          dq commonStrat
   825 0000092A [C90A000000000000]          dq lptDriver
   826 00000932 4C50543220202020            db "LPT2    "
   827                                  lpt3Hdr:
   828 0000093A FFFFFFFFFFFFFFFF            dq -1
   829 00000942 40A0                        dw 0A040h
   830 00000944 [5C09000000000000]          dq commonStrat
   831 0000094C [C90A000000000000]          dq lptDriver
   832 00000954 4C50543320202020            dq "LPT3    "
   833                                  
   834                                  commonStrat:
   835                                  ;DOS calls this function with rbx=Ptr to request header
   836 0000095C 48891D01000000              mov qword [reqHdrPtr], rbx
   837 00000963 C3                          ret
   838 00000964 0000000000000000        reqHdrPtr  dq 0    ;Where the default device drivers store the ReqPtr
   839                                  
   840                                  nulStrat:
   841 0000096C 66C743030001                mov word [rbx + drvReqHdr.status], 0100h    ;Set done bit directly
   842                                  nulIntr:
   843 00000972 C3                          ret
   844                                  
   845                                  conDriver:
   846 00000973 50                          push rax
   847 00000974 53                          push rbx
   848 00000975 488B1DE8FFFFFF              mov rbx, qword [reqHdrPtr]
   849 0000097C 8A4302                      mov al, byte [rbx + drvReqHdr.cmdcde]
   850 0000097F 84C0                        test al, al
   851 00000981 7421                        jz conInit
   852 00000983 3C04                        cmp al, 4
   853 00000985 744D                        jz conRead
   854 00000987 3C05                        cmp al, 5
   855 00000989 7466                        jz conNondestructiveRead
   856 0000098B 3C06                        cmp al, 6
   857 0000098D 740C                        jz conExit
   858 0000098F 3C07                        cmp al, 7
   859 00000991 7471                        jz conFlushInputBuffers
   860 00000993 3C08                        cmp al, 8
   861 00000995 7479                        jz conWrite
   862 00000997 3C09                        cmp al, 9
   863 00000999 7475                        jz conWrite
   864                                  ;All other cases fall through here
   865                                  conExit:
   866 0000099B 66814B030001                or word [rbx + drvReqHdr.status], 0100h    ;Merge done bit
   867 000009A1 5B                          pop rbx
   868 000009A2 58                          pop rax
   869 000009A3 C3                          ret
   870                                  conInit:    ;Function 0
   871 000009A4 52                          push rdx
   872                                      ;Flush keyboard buffer
   873                                  .ci0:
   874 000009A5 B401                        mov ah, 01      ;Get buffer status
   875 000009A7 CD36                        int 36h
   876 000009A9 7406                        jz .ci1      ;If zero clear => no more keys to read
   877 000009AB 30E4                        xor ah, ah
   878 000009AD CD36                        int 36h ;Read key to flush from buffer
   879 000009AF EBF4                        jmp short .ci0
   880                                  .ci1:
   881 000009B1 B800050000                  mov eax, 0500h  ;Set page zero as the default page
   882 000009B6 CD30                        int 30h
   883 000009B8 B402                        mov ah, 02h
   884 000009BA 31D2                        xor edx, edx    ;Set screen cursor to top right corner
   885 000009BC 88D7                        mov bh, dl      ;Set cursor for page 0
   886 000009BE CD30                        int 30h
   887 000009C0 B707                        mov bh, 07h     ;Grey/Black attribs
   888 000009C2 B800060000                  mov eax, 0600h  ;Clear whole screen
   889 000009C7 CD30                        int 30h
   890 000009C9 5A                          pop rdx
   891 000009CA EBCF                        jmp short conExit
   892                                  conIORead:
   893 000009CC 66C743030380                mov word [rbx + drvReqHdr.status], 8003h    ;Error, unknown command!
   894 000009D2 EBC7                        jmp short conExit
   895                                  conRead:    ;Function 4
   896 000009D4 57                          push rdi
   897 000009D5 51                          push rcx
   898 000009D6 488B7B0E                    mov rdi, qword [rbx + ioReqPkt.bufptr]  ;Point rdi to caller buffer
   899 000009DA 31C9                        xor ecx, ecx    ;Zero the char counter
   900                                  .cr1:
   901 000009DC 3B4B16                      cmp ecx, dword [rbx + ioReqPkt.tfrlen]
   902 000009DF 7409                        je .cre2
   903 000009E1 31C0                        xor eax, eax
   904 000009E3 CD36                        int 36h
   905 000009E5 AA                          stosb   ;Store char in al into buffer and inc rdi
   906 000009E6 FFC1                        inc ecx
   907 000009E8 EBF2                        jmp short .cr1
   908                                  .cre2:
   909 000009EA 894B16                      mov dword [rbx + ioReqPkt.tfrlen], ecx  ;Move num of transferred chars
   910 000009ED 59                          pop rcx
   911 000009EE 5F                          pop rdi
   912 000009EF EBAA                        jmp short conExit
   913                                  conNondestructiveRead:  ;Function 5
   914 000009F1 B401                        mov ah, 01h     ;Get key if exists
   915 000009F3 CD36                        int 36h
   916 000009F5 7405                        jz .cnr           ;If zero clear => no key, go forwards
   917                                      ;Keystroke available
   918 000009F7 88430D                      mov byte [rbx + nonDestInNoWaitReqPkt.retbyt], al   ;Move char in al
   919 000009FA EB9F                        jmp short conExit
   920                                  .cnr: ;No keystroke available
   921 000009FC 66C743030003                mov word [rbx + nonDestInNoWaitReqPkt.status], 0300h   ;Set busy bit
   922 00000A02 EB97                        jmp short conExit
   923                                  conFlushInputBuffers:   ;Function 7
   924 00000A04 B401                        mov ah, 01      ;Get buffer status
   925 00000A06 CD36                        int 36h
   926 00000A08 7491                        jz conExit      ;If zero clear => no more keys to read
   927 00000A0A 30E4                        xor ah, ah
   928 00000A0C CD36                        int 36h ;Read key to flush from buffer
   929 00000A0E EBF4                        jmp short conFlushInputBuffers
   930                                  conWrite:   ;Function 8 and 9
   931 00000A10 56                          push rsi
   932 00000A11 51                          push rcx
   933 00000A12 488B730E                    mov rsi, qword [rbx + ioReqPkt.bufptr] ;Point rsi to caller buffer 
   934 00000A16 31C9                        xor ecx, ecx    ;Zero the char counter
   935                                  .cw1: 
   936 00000A18 3B4B16                      cmp ecx, dword [rbx + ioReqPkt.tfrlen]
   937 00000A1B 7407                        je .cw2
   938 00000A1D AC                          lodsb   ;Get char into al, and inc rsi
   939 00000A1E CD49                        int 49h ;Fast print char
   940 00000A20 FFC1                        inc ecx
   941 00000A22 EBF4                        jmp short .cw1 ;keep printing until all chars printed
   942                                  .cw2:
   943 00000A24 894B16                      mov dword [rbx + ioReqPkt.tfrlen], ecx  ;Move num of transferred chars
   944 00000A27 59                          pop rcx
   945 00000A28 5E                          pop rsi
   946 00000A29 E96DFFFFFF                  jmp conExit
   947                                  
   948                                  clkDriver:
   949                                  
   950                                  comDriver:
   951                                  com1Intr:
   952 00000A2E C6059300000000              mov byte [comDevice], 0
   953 00000A35 EB19                        jmp short comIntr
   954                                  com2Intr:
   955 00000A37 C6058A00000001              mov byte [comDevice], 1
   956 00000A3E EB10                        jmp short comIntr
   957                                  com3Intr:
   958 00000A40 C6058100000002              mov byte [comDevice], 2
   959 00000A47 EB07                        jmp short comIntr
   960                                  com4Intr:
   961 00000A49 C6057800000003              mov byte [comDevice], 3
   962                                  comIntr:
   963 00000A50 50                          push rax
   964 00000A51 53                          push rbx
   965 00000A52 51                          push rcx
   966 00000A53 52                          push rdx
   967 00000A54 56                          push rsi
   968 00000A55 488B1D08FFFFFF              mov rbx, qword [reqHdrPtr]
   969 00000A5C 8A4302                      mov al, byte [rbx + drvReqHdr.cmdcde]
   970 00000A5F 3C04                        cmp al, 4
   971 00000A61 7418                        jz comRead
   972 00000A63 3C05                        cmp al, 5
   973 00000A65 7439                        jz comNondestructiveRead
   974 00000A67 3C08                        cmp al, 8
   975 00000A69 743D                        jz comWrite
   976 00000A6B 3C09                        cmp al, 9
   977 00000A6D 7439                        jz comWrite
   978                                  ;All other cases fall through here
   979                                  comExit:
   980 00000A6F 66814B030001                or word [rbx + drvReqHdr.status], 0100h    ;Merge done bit
   981 00000A75 5E                          pop rsi
   982 00000A76 5A                          pop rdx
   983 00000A77 59                          pop rcx
   984 00000A78 5B                          pop rbx
   985 00000A79 58                          pop rax
   986 00000A7A C3                          ret
   987                                  comRead:
   988 00000A7B 57                          push rdi
   989 00000A7C 488B7B0E                    mov rdi, qword [rbx + ioReqPkt.bufptr]  ;Point rdi to caller buffer
   990 00000A80 31C9                        xor ecx, ecx    ;Zero the char counter
   991                                  .cr1:
   992 00000A82 3B4B16                      cmp ecx, dword [rbx + ioReqPkt.tfrlen]
   993 00000A85 7413                        je .cre2
   994 00000A87 B802000000                  mov eax, 02h    ;Recieve 
   995 00000A8C 668B1535000000              mov dx, word [comDevice]    ;Get transacting com device
   996 00000A93 CD34                        int 34h ;Recieve Char
   997 00000A95 AA                          stosb   ;Store char in al into buffer and inc rdi
   998 00000A96 FFC1                        inc ecx
   999 00000A98 EBE8                        jmp short .cr1
  1000                                  .cre2:
  1001 00000A9A 894B16                      mov dword [rbx + ioReqPkt.tfrlen], ecx  ;Move num of transferred chars
  1002 00000A9D 5F                          pop rdi
  1003 00000A9E EBCF                        jmp short comExit
  1004                                  comNondestructiveRead:
  1005 00000AA0 66C743030002                mov word [rbx + nonDestInNoWaitReqPkt.status], 0200h    ;Set busy bit 
  1006 00000AA6 EBC7                        jmp short comExit
  1007                                  comWrite:
  1008 00000AA8 488B730E                 mov rsi, qword [rbx + ioReqPkt.bufptr] ;Point rsi to caller buffer 
  1009 00000AAC 31C9                        xor ecx, ecx    ;Zero the char counter
  1010                                  .cw1: 
  1011 00000AAE 3B4B16                      cmp ecx, dword [rbx + ioReqPkt.tfrlen]
  1012 00000AB1 7410                        je .cw2
  1013 00000AB3 AC                          lodsb   ;Get char into al, and inc rsi
  1014 00000AB4 B401                        mov ah, 01h ;Move function number into ah
  1015 00000AB6 668B150B000000              mov dx, word [comDevice]
  1016 00000ABD CD34                        int 34h ;Transmit char
  1017 00000ABF FFC1                        inc ecx
  1018 00000AC1 EBEB                        jmp short .cw1 ;keep printing until all chars printed
  1019                                  .cw2:
  1020 00000AC3 894B16                      mov dword [rbx + ioReqPkt.tfrlen], ecx  ;Move num of transferred chars
  1021 00000AC6 EBA7                        jmp short comExit
  1022 00000AC8 00                      comDevice   db 0
  1023                                  
  1024                                  lptDriver:    ;Drivers for LPT 1, 2, 3
  1025 00000AC9 57                          push rdi
  1026 00000ACA 488B3D93FEFFFF              mov rdi, qword [reqHdrPtr]
  1027 00000AD1 66C747030001                mov word [rdi + drvReqHdr.status], 0100h    ;Done bit set
  1028 00000AD7 5F                          pop rdi
  1029 00000AD8 C3                          ret
  1030                                  
  1031                                  msdDriver:
  1032 00000AD9 50                          push rax
  1033 00000ADA 53                          push rbx
  1034 00000ADB 51                          push rcx
  1035 00000ADC 52                          push rdx
  1036 00000ADD 56                          push rsi
  1037 00000ADE 57                          push rdi
  1038 00000ADF 55                          push rbp
  1039 00000AE0 488B1D7DFEFFFF              mov rbx, qword [reqHdrPtr]  ;Get the ptr to the req header in rbx
  1040 00000AE7 8A4302                      mov al, byte [rbx + drvReqHdr.cmdcde]   ;Get command code in al
  1041 00000AEA 3C18                        cmp al, 24  ;Check cmd num is valid
  1042 00000AEC 776C                        ja .msdError
  1043 00000AEE 84C0                        test al, al
  1044 00000AF0 7476                        jz .msdInit
  1045 00000AF2 3C01                        cmp al, 01
  1046 00000AF4 0F8409010000                jz .msdMedChk
  1047 00000AFA 3C02                        cmp al, 02
  1048 00000AFC 0F8442010000                jz .msdBuildBPB
  1049 00000B02 3C03                        cmp al, 03
  1050 00000B04 0F847B010000                jz .msdIOCTLRead
  1051 00000B0A 3C04                        cmp al, 04
  1052 00000B0C 0F8478010000                jz .msdRead
  1053 00000B12 3C08                        cmp al, 08
  1054 00000B14 0F8482010000                jz .msdWrite
  1055 00000B1A 3C09                        cmp al, 09
  1056 00000B1C 0F848C010000                jz .msdWriteVerify
  1057 00000B22 3C0C                        cmp al, 12
  1058 00000B24 0F849D010000                jz .msdIOCTLWrite
  1059 00000B2A 3C0D                        cmp al, 13
  1060 00000B2C 0F849A010000                jz .msdDevOpen
  1061 00000B32 3C0E                        cmp al, 14
  1062 00000B34 0F84A2010000                jz .msdDevClose
  1063 00000B3A 3C0F                        cmp al, 15
  1064 00000B3C 0F84AA010000                jz .msdRemovableMedia
  1065 00000B42 3C13                        cmp al, 19
  1066 00000B44 0F84C0010000                jz .msdGenericIOCTL
  1067 00000B4A 3C17                        cmp al, 23
  1068 00000B4C 0F84BD010000                jz .msdGetLogicalDev
  1069 00000B52 3C18                        cmp al, 24
  1070 00000B54 0F84C3010000                jz .msdSetLogicalDev
  1071                                  .msdError:
  1072                                  .msdDriverExit:
  1073 00000B5A 66814B030001                or word [rbx + drvReqHdr.status], 0100h ;Set done bit
  1074 00000B60 5D                          pop rbp
  1075 00000B61 5F                          pop rdi
  1076 00000B62 5E                          pop rsi
  1077 00000B63 5A                          pop rdx
  1078 00000B64 59                          pop rcx
  1079 00000B65 5B                          pop rbx
  1080 00000B66 58                          pop rax
  1081 00000B67 C3                          ret
  1082                                  .msdInit:            ;Function 0
  1083 00000B68 CD31                        int 31h ;Get number of Int 33h devices in r8b
  1084 00000B6A 4D0FB6C0                    movzx r8, r8b   ;Keeps real count
  1085 00000B6E 4489C0                      mov eax, r8d
  1086 00000B71 3C01                        cmp al, 1
  1087 00000B73 7702                        ja .mi1
  1088 00000B75 FEC0                        inc al ;Make it two
  1089                                  .mi1:
  1090 00000B77 BA05000000                  mov edx, 5
  1091 00000B7C 39D0                        cmp eax, edx
  1092 00000B7E 0F47C2                      cmova eax, edx  ;If num of drives is greater than 5, consider only first 5
  1093 00000B81 8805DFFCFFFF                mov byte [msdHdr + drvHdr.drvNam], al ;Save num of drvs in drvr hdr
  1094 00000B87 88430D                      mov byte [rbx + initReqPkt.numunt], al ;And in req packet
  1095 00000B8A 440005(A9000000)            add byte [numMSDdrv], r8b ;Add the true number of devices to total
  1096 00000B91 31ED                        xor ebp, ebp    ;Use bpl as device counter, cmp to r8b
  1097 00000B93 488D3DE6010000              lea rdi, qword [.msdBPBblks]
  1098 00000B9A 53                          push rbx
  1099                                  .mi2:
  1100 00000B9B 89EA                        mov edx, ebp
  1101 00000B9D 488D1D34040000              lea rbx, qword [driverDataPtr]  ;Get effective address of scratch space
  1102 00000BA4 31C9                        xor ecx, ecx    ;Sector 0
  1103 00000BA6 B801820000                  mov eax, 8201h       ;Read 1 sector
  1104 00000BAB CD33                        int 33h
  1105 00000BAD 724E                        jc .msdInitError
  1106                                  
  1107 00000BAF 488D3522040000              lea rsi, qword [driverDataPtr]  ;Point to start of data
  1108 00000BB6 B90F000000                  mov ecx, bpbEx_size/8
  1109 00000BBB F348A5                      rep movsq   ;Move the BPB data into the right block
  1110                                  
  1111 00000BBE FFC5                        inc ebp
  1112 00000BC0 4C39C5                      cmp rbp, r8 ;Have we written the BPB for all physical drives?
  1113 00000BC3 75D6                        jne .mi2  ;No? Go again
  1114                                  
  1115 00000BC5 488D3D8C010000              lea rdi, qword [.msdBPBTbl]  ;Point to start of table
  1116 00000BCC 488D15AD010000              lea rdx, qword [.msdBPBblks]
  1117                                  .mi3:
  1118 00000BD3 488917                      mov qword [rdi], rdx   ;Move the block entry ptr to rdi
  1119 00000BD6 4881C278000000              add rdx, bpbEx_size      ;Make rdx point to the next block entry
  1120 00000BDD FFCD                        dec ebp
  1121 00000BDF 75F2                        jnz .mi3  ;If not zero yet, go again
  1122                                  
  1123 00000BE1 5B                          pop rbx
  1124 00000BE2 488D156F010000              lea rdx, qword [.msdBPBTbl]  ;Get far pointer 
  1125 00000BE9 48895316                    mov qword [rbx + initReqPkt.optptr], rdx  ;Save ptr to array
  1126 00000BED 488D15E4030000              lea rdx, qword [driverDataPtr]
  1127 00000BF4 4889530E                    mov qword [rbx + initReqPkt.endptr], rdx    ;Save free space ptr
  1128 00000BF8 E95DFFFFFF                  jmp .msdDriverExit
  1129                                  .msdInitError:
  1130 00000BFD 5B                          pop rbx
  1131 00000BFE E957FFFFFF                  jmp .msdDriverExit
  1132                                  .msdMedChk:          ;Function 1
  1133                                  ;Once the BIOS function is implmented that reads the changeline, use that!
  1134                                  ;For BIOSes that dont support the changeline, the following procedure will 
  1135                                  ; suffice.
  1136 00000C03 480FB64301                  movzx rax, byte [rbx + mediaCheckReqPkt.unitnm]
  1137 00000C08 8A90[4E0D0000]              mov dl, byte [.msdBIOSmap + rax]    ;Translate unitnum to BIOS num
  1138 00000C0E F6C280                      test dl, 80h    ;If it is a fixed disk, no change!
  1139 00000C11 7528                        jnz .mmcNoChange
  1140                                  ;Now we test Media Descriptor
  1141 00000C13 8A530D                      mov dl, byte [rbx + mediaCheckReqPkt.medesc]    ;Media descriptor
  1142 00000C16 488B3CC5[580D0000]          mov rdi, qword [.msdBPBTbl + 8*rax]
  1143 00000C1E 488B3F                      mov rdi, qword [rdi]    ;Dereference rdi
  1144 00000C21 385715                      cmp byte [rdi + bpb32.media], dl    ;Compare media descriptor bytes
  1145 00000C24 740C                        je .mmcUnsure
  1146                                  .mmcChange: ;Fail safe, always assume the device has changed
  1147 00000C26 C6430EFF                    mov byte [rbx + mediaCheckReqPkt.medret], -1
  1148 00000C2A 48C7430F[440D0000]          mov qword [rbx + mediaCheckReqPkt.desptr], .msdDefLabel ;Temp, ret def label
  1149                                  .mmcUnsure:
  1150 00000C32 C6430E00                    mov byte [rbx + mediaCheckReqPkt.medret], 0
  1151 00000C36 E91FFFFFFF                  jmp .msdDriverExit
  1152                                  .mmcNoChange:
  1153 00000C3B C6430E01                    mov byte [rbx + mediaCheckReqPkt.medret], 1
  1154 00000C3F E916FFFFFF                  jmp .msdDriverExit
  1155                                  
  1156                                  .msdBuildBPB:        ;Function 2
  1157 00000C44 4889DE                      mov rsi, rbx
  1158 00000C47 480FB64601                  movzx rax, byte [rsi + bpbBuildReqPkt.unitnm]  ;Get unit number into rax
  1159 00000C4C 8A90[4E0D0000]              mov dl, byte [.msdBIOSmap + rax]  ;Get translated BIOS number for req
  1160 00000C52 488B5E0E                    mov rbx, qword [rsi + bpbBuildReqPkt.bufptr]    ;Transfer buffer
  1161 00000C56 31C9                        xor ecx, ecx    ;Read Sector 0
  1162 00000C58 B801820000                  mov eax, 8201h  ;LBA Read 1 sector
  1163 00000C5D CD33                        int 33h
  1164 00000C5F 7224                        jc .mbbpbError
  1165 00000C61 4887DE                      xchg rbx, rsi    ;Transf Buf(rbx) <-> ReqHdr(rsi)
  1166 00000C64 480FB64301                  movzx rax, byte [rbx + bpbBuildReqPkt.unitnm]  ;Get unit number into rax
  1167 00000C69 488B3CC5[580D0000]          mov rdi, qword [.msdBPBTbl + 8*rax] ;Get pointer to pointer to buffer
  1168 00000C71 488B3F                      mov rdi, qword [rdi] ;Dereference to get pointer to buffer 
  1169 00000C74 48897B16                    mov qword [rbx + bpbBuildReqPkt.bpbptr], rdi ;rdi -> final bpb resting place
  1170 00000C78 B90F000000                  mov ecx, bpbEx_size/8
  1171 00000C7D F348A5                      rep movsq   ;Move the BPB data into the right space
  1172 00000C80 E9D5FEFFFF                  jmp .msdDriverExit
  1173                                  .mbbpbError:
  1174                                  .msdIOCTLRead:       ;Function 3, returns done
  1175 00000C85 E9D0FEFFFF                  jmp .msdDriverExit
  1176                                  .msdRead:            ;Function 4
  1177 00000C8A 4889DD                      mov rbp, rbx
  1178 00000C8D B482                        mov ah, 82h ;LBA Read Sectors
  1179 00000C8F E897000000                  call .msdBlkIOCommon
  1180 00000C94 4889EB                      mov rbx, rbp
  1181 00000C97 E9BEFEFFFF                  jmp .msdDriverExit
  1182                                  .msdWrite:           ;Function 8
  1183 00000C9C 4889DD                      mov rbp, rbx
  1184 00000C9F B483                        mov ah, 83h ;LBA Write Sectors
  1185 00000CA1 E885000000                  call .msdBlkIOCommon
  1186 00000CA6 4889EB                      mov rbx, rbp
  1187 00000CA9 E9ACFEFFFF                  jmp .msdDriverExit
  1188                                  .msdWriteVerify:     ;Function 9, writes sectors then verifies them
  1189 00000CAE 4889DD                      mov rbp, rbx
  1190 00000CB1 B483                        mov ah, 83h ;LBA Write Sectors
  1191 00000CB3 E873000000                  call .msdBlkIOCommon
  1192 00000CB8 B484                        mov ah, 84h ;LBA Verify Sectors
  1193 00000CBA E86C000000                  call .msdBlkIOCommon
  1194 00000CBF 4889EB                      mov rbx, rbp
  1195 00000CC2 E993FEFFFF                  jmp .msdDriverExit
  1196                                  .msdIOCTLWrite:      ;Function 12, returns done
  1197 00000CC7 E98EFEFFFF                  jmp .msdDriverExit
  1198                                  .msdDevOpen:         ;Function 13
  1199 00000CCC 480FB64301                  movzx rax, byte [rbx + openReqPkt.unitnm]
  1200 00000CD1 FE80[530D0000]              inc byte [.msdHdlCnt + rax]  ;Inc handle cnt for given unit
  1201 00000CD7 E97EFEFFFF                  jmp .msdDriverExit
  1202                                  .msdDevClose:        ;Function 14
  1203 00000CDC 480FB64301                  movzx rax, byte [rbx + closeReqPkt.unitnm]
  1204 00000CE1 FE88[530D0000]              dec byte [.msdHdlCnt + rax]  ;Dec handle cnt for given unit
  1205 00000CE7 E96EFEFFFF                  jmp .msdDriverExit
  1206                                  .msdRemovableMedia:  ;Function 15
  1207 00000CEC 480FB64301                  movzx rax, byte [rbx + remMediaReqPkt.unitnm]
  1208 00000CF1 8A80[4E0D0000]              mov al, byte [.msdBIOSmap + rax]    ;Get BIOS number
  1209 00000CF7 A880                        test al, 80h
  1210 00000CF9 0F845BFEFFFF                jz .msdDriverExit   ;If removable, busy bit is clear
  1211 00000CFF 66C743032000                mov word [rbx + remMediaReqPkt.status], 20h ;Set Busy bit
  1212 00000D05 E950FEFFFF                  jmp .msdDriverExit
  1213                                  .msdGenericIOCTL:    ;Function 19
  1214 00000D0A E94BFEFFFF                  jmp .msdDriverExit
  1215                                  .msdGetLogicalDev:   ;Function 23
  1216 00000D0F 8A0538000000                mov al, byte [.msdCurDev]
  1217 00000D15 884301                      mov byte [rbx + getDevReqPkt.unitnm], al
  1218 00000D18 E93DFEFFFF                  jmp .msdDriverExit
  1219                                  .msdSetLogicalDev:   ;Function 24
  1220 00000D1D 8A4301                      mov al, byte [rbx + getDevReqPkt.unitnm]
  1221 00000D20 880527000000                mov byte [.msdCurDev], al
  1222 00000D26 E92FFEFFFF                  jmp .msdDriverExit
  1223                                  
  1224                                  .msdBlkIOCommon:  ;Does block IO
  1225                                  ;Called with rbp containing old rbx value and ah with function number
  1226                                  ;Error handled by caller
  1227 00000D2B 480FB64501                  movzx rax, byte [rbp + ioReqPkt.unitnm]
  1228 00000D30 8A90[4E0D0000]              mov dl, byte [.msdBIOSmap + rax]  ;Get translated BIOS number for req
  1229 00000D36 488B4D1A                    mov rcx, qword [rbp + ioReqPkt.strtsc]  ;Get start sector
  1230 00000D3A 8A4516                      mov al, byte [rbp + ioReqPkt.tfrlen]    ;Get number of sectors, max 255
  1231 00000D3D 488B5D0E                    mov rbx, qword [rbp + ioReqPkt.bufptr]  ;Get Memory Buffer
  1232 00000D41 CD33                        int 33h
  1233 00000D43 C3                          ret
  1234                                  
  1235 00000D44 4E4F204E414D452000      .msdDefLabel db "NO NAME ",0 ;Default volume label
  1236                                  ;LASTDRIVE default is 5
  1237 00000D4D 00                      .msdCurDev   db 0  ;Dev to be used by the driver saved here! (usually 1-1)
  1238                                  ; Except when single drive in use, in which case Drive A and B refer to device 0
  1239 00000D4E 0000000000              .msdBIOSmap  db 5 dup (0)    ;Translates DOS drive number to BIOS number
  1240 00000D53 0000000000              .msdHdlCnt   db 5 dup (0)    ;Keeps a count of open handles to drive N
  1241 00000D58 000000000000000000-     .msdBPBTbl   dq 5 dup (0)    ;BPB pointer table to be returned
  1241 00000D61 000000000000000000-
  1241 00000D6A 000000000000000000-
  1241 00000D73 000000000000000000-
  1241 00000D7C 00000000           
  1242 00000D80 000000000000000000-     .msdBPBblks  db 5*bpbEx_size dup (0) ;Max 5 bpb records of exFAT bpb size
  1242 00000D89 000000000000000000-
  1242 00000D92 000000000000000000-
  1242 00000D9B 000000000000000000-
  1242 00000DA4 000000000000000000-
  1242 00000DAD 000000000000000000-
  1242 00000DB6 000000000000000000-
  1242 00000DBF 000000000000000000-
  1242 00000DC8 000000000000000000-
  1242 00000DD1 000000000000000000-
  1242 00000DDA 000000000000000000-
  1242 00000DE3 000000000000000000-
  1242 00000DEC 000000000000000000-
  1242 00000DF5 000000000000000000-
  1242 00000DFE 000000000000000000-
  1242 00000E07 000000000000000000-
  1242 00000E10 000000000000000000-
  1242 00000E19 000000000000000000-
  1242 00000E22 000000000000000000-
  1242 00000E2B 000000000000000000-
  1242 00000E34 000000000000000000-
  1242 00000E3D 000000000000000000-
  1242 00000E46 000000000000000000-
  1242 00000E4F 000000000000000000-
  1242 00000E58 000000000000000000-
  1242 00000E61 000000000000000000-
  1242 00000E6A 000000000000000000-
  1242 00000E73 000000000000000000-
  1242 00000E7C 000000000000000000-
  1242 00000E85 000000000000000000-
  1242 00000E8E 000000000000000000-
  1242 00000E97 000000000000000000-
  1242 00000EA0 000000000000000000-
  1242 00000EA9 000000000000000000-
  1242 00000EB2 000000000000000000-
  1242 00000EBB 000000000000000000-
  1242 00000EC4 000000000000000000-
  1242 00000ECD 000000000000000000-
  1242 00000ED6 000000000000000000-
  1242 00000EDF 000000000000000000-
  1242 00000EE8 000000000000000000-
  1242 00000EF1 000000000000000000-
  1242 00000EFA 000000000000000000-
  1242 00000F03 000000000000000000-
  1242 00000F0C 000000000000000000-
  1242 00000F15 000000000000000000-
  1242 00000F1E 000000000000000000-
  1242 00000F27 000000000000000000-
  1242 00000F30 000000000000000000-
  1242 00000F39 000000000000000000-
  1242 00000F42 000000000000000000-
  1242 00000F4B 000000000000000000-
  1242 00000F54 000000000000000000-
  1242 00000F5D 000000000000000000-
  1242 00000F66 000000000000000000-
  1242 00000F6F 000000000000000000-
  1242 00000F78 000000000000000000-
  1242 00000F81 000000000000000000-
  1242 00000F8A 000000000000000000-
  1242 00000F93 000000000000000000-
  1242 00000F9C 000000000000000000-
  1242 00000FA5 000000000000000000-
  1242 00000FAE 000000000000000000-
  1242 00000FB7 000000000000000000-
  1242 00000FC0 000000000000000000-
  1242 00000FC9 000000000000000000-
  1242 00000FD2 000000000000       
  1243                                  
  1244                                  driverDataPtr:
