
Memory Configuration

Name             Origin             Length             Attributes
*default*        0x0000000000000000 0xffffffffffffffff

Linker script and memory map

LOAD ./bin/tmp/oem.obj
LOAD ./bin/tmp/sys.obj
LOAD ./bin/tmp/krn.obj
LOAD ./bin/tmp/drv.obj
                0x0000000000000000                __image_base__ = 0x0
                0x0000000000000000                __dll__ = 0x0
                0x0000000000000000                __ImageBase = 0x0
                0x0000000000000001                __section_alignment__ = 0x1
                0x0000000000000001                __file_alignment__ = 0x1
                0x0000000000000004                __major_os_version__ = 0x4
                0x0000000000000000                __minor_os_version__ = 0x0
                0x0000000000000000                __major_image_version__ = 0x0
                0x0000000000000000                __minor_image_version__ = 0x0
                0x0000000000000005                __major_subsystem_version__ = 0x5
                0x0000000000000002                __minor_subsystem_version__ = 0x2
                0x0000000000000003                __subsystem__ = 0x3
                0x0000000000200000                __size_of_stack_reserve__ = 0x200000
                0x0000000000001000                __size_of_stack_commit__ = 0x1000
                0x0000000000100000                __size_of_heap_reserve__ = 0x100000
                0x0000000000001000                __size_of_heap_commit__ = 0x1000
                0x0000000000000000                __loader_flags__ = 0x0
                0x0000000000000100                __dll_characteristics__ = 0x100

.text           0x0000000000000000        0x0
 .text          0x0000000000000000        0x0 ./bin/tmp/sys.obj
 .text          0x0000000000000000        0x0 ./bin/tmp/krn.obj
 .text          0x0000000000000000        0x0 ./bin/tmp/drv.obj

oem$            0x0000000000000000      0x670
 ./bin/tmp/oem.obj()
 .text          0x0000000000000000        0x0 ./bin/tmp/oem.obj
 otext          0x0000000000000000      0x667 ./bin/tmp/oem.obj
                0x0000000000000352                OEMMCBINIT
                0x0000000000000600                OEMHALT
                0x0000000000000644                OEMCALLBK
 odata          0x0000000000000667        0x0 ./bin/tmp/oem.obj

sys$            0x0000000000000667     0x1654
 ./bin/tmp/sys.obj(stext)
 stext          0x0000000000000667     0x1335 ./bin/tmp/sys.obj
                0x0000000000000667                SYSENTRY
 ./bin/tmp/sys.obj(sdata)
 sdata          0x000000000000199c      0x31c ./bin/tmp/sys.obj
                0x0000000000001b58                FINALDOSPTR
                0x0000000000001b60                MCBANCHOR
                0x0000000000001b68                FILES
                0x0000000000001b69                BUFFERS
                0x0000000000001b6a                DFLTDRIVE
                0x0000000000001b6b                LASTDRIVE
                0x0000000000001b6c                OEMBIOS
                0x0000000000001b6d                OEMPTR
                0x0000000000001b6d                OEMMEMPTR
                0x0000000000001b75                OEMVERSION
                0x0000000000001cb8                dosResStart = .

dos$bss         0x0000000000000000     0x1a81
 ./bin/tmp/krn.obj(dBSS)
 dBSS           0x0000000000000000     0x1a81 ./bin/tmp/krn.obj
                0x0000000000000000                anchorMcb
                0x0000000000000010                bootDrive
                0x0000000000000011                biosVers
                0x0000000000000015                biosPtr
                0x000000000000001f                shareCount
                0x0000000000000021                shareDelay
                0x0000000000000033                mcbChainPtr
                0x000000000000003b                dpbHeadPtr
                0x0000000000000043                sftHeadPtr
                0x000000000000004b                clockPtr
                0x0000000000000053                vConPtr
                0x000000000000005b                maxBytesSec
                0x000000000000005d                bufHeadPtr
                0x0000000000000065                cdsHeadPtr
                0x000000000000006d                fcbsHeadPtr
                0x0000000000000077                numPhysVol
                0x0000000000000078                lastdrvNum
                0x0000000000000079                numBuffers
                0x000000000000007a                nulDevHdr
                0x000000000000009d                numFiles
                0x000000000000009e                dosMgrHooks
                0x00000000000000af                dllHooks
                0x00000000000000bf                shareHooks
                0x0000000000000137                firstSftHeader
                0x00000000000003d1                switchChar
                0x00000000000003d6                machineName
                0x00000000000003e6                critPtchTbl
                0x0000000000000409                errorDrv
                0x0000000000000417                currentDTA
                0x000000000000041f                currentPSP
                0x000000000000048e                dayOfMonth
                0x000000000000048f                monthOfYear
                0x000000000000073a                currentNdx
                0x00000000000019e2                serverDispTblPtr

dos$            0x0000000000001a81     0x7fec
 ./bin/tmp/krn.obj(dtext)
 dtext          0x0000000000001a81     0x7fe9 ./bin/tmp/krn.obj
                0x0000000000001a83                dosBIOSName
                0x0000000000001ab3                extKeyFunc
                0x0000000000001c56                charTableArray.ucTable
                0x0000000000001c56                charTableArray
                0x0000000000001c5f                charTableArray.filenameUCTable
                0x0000000000001c68                charTableArray.filenameTerminatingTable
                0x0000000000001c71                charTableArray.collatingTable
                0x0000000000001c81                ctryTbl
                0x0000000000002110                serverDispTbl
                0x0000000000004842                editKeys
                0x00000000000075d7                terminateProcess
                0x00000000000075de                terminateRes
                0x00000000000081a9                caseMapFunc
                0x0000000000008416                i0
                0x000000000000841d                i1
                0x0000000000008427                i2
                0x0000000000008431                i3
                0x000000000000843b                i4
                0x0000000000008445                i5
                0x000000000000844c                i6
                0x0000000000008453                i7
                0x000000000000845a                i8
                0x0000000000008461                i9
                0x0000000000008468                i10
                0x000000000000846f                i11
                0x0000000000008476                i12
                0x000000000000847d                i13
                0x0000000000008484                i14
                0x000000000000848b                i15
                0x0000000000008492                i16
                0x0000000000008499                i17
                0x00000000000084a0                i18
                0x00000000000084a7                i19
                0x00000000000084ae                i20
                0x00000000000084b5                i21
                0x0000000000008814                dosDefCritErrHdlr
                0x000000000000882d                nulStrat
                0x0000000000008833                nulIntr
                0x00000000000088cf                absDiskWrite
                0x00000000000088ee                absDiskRead
                0x0000000000008fba                functionDispatch
                0x0000000000009112                defaultIretq
                0x0000000000009142                dosCrit1Enter
                0x000000000000914c                dosCrit1Exit
                0x0000000000009156                dosCrit2Enter
                0x0000000000009160                dosCrit2Exit
                0x0000000000009866                multiplexHdlr
                0x000000000000995a                badDfltShareHook
                0x0000000000009960                goodDfltShareHook

drv$            0x0000000000009a6a     0x1114
                0x0000000000009a6a                drv$_start = .
 ./bin/tmp/drv.obj(kDrvText)
 kDrvText       0x0000000000009a6a     0x1113 ./bin/tmp/drv.obj
                0x0000000000009a6a                driverChain
 ./bin/tmp/drv.obj(kDrvDat)
 kDrvDat        0x000000000000ab7d        0x0 ./bin/tmp/drv.obj
                0x000000000000ab7d                dosResLen = .

drv$bss         0x000000000000ab80     0x1010
 ./bin/tmp/drv.obj(kDrvBSS)
 kDrvBSS        0x000000000000ab80     0x1010 ./bin/tmp/drv.obj
                0x000000000000bb90                dosEnd = ALIGN (0x10)
OUTPUT(./bin/tmp/dos.exe pei-x86-64)
